

HI-TECH Software PIC LITE Macro Assembler V9.80 build 6738 
                                                                                               Thu Jun 28 11:01:51 2012

HI-TECH Software Omniscient Code Generator (Lite mode) build 6738
     1  0000                     opt subtitle "HI-TECH Software Omniscient Code Generator (Lite mode) build 6738"
     2                           
     3                           opt pagewidth 120
     4                           
     5                           	opt lm
     6                           
     7                           	processor	16F876A
     8                           clrc	macro
     9                           	bcf	3,0
    10  0000                     	endm
    11                           clrz	macro
    12                           	bcf	3,2
    13  0000                     	endm
    14                           setc	macro
    15                           	bsf	3,0
    16  0000                     	endm
    17                           setz	macro
    18                           	bsf	3,2
    19  0000                     	endm
    20                           skipc	macro
    21                           	btfss	3,0
    22  0000                     	endm
    23                           skipz	macro
    24                           	btfss	3,2
    25  0000                     	endm
    26                           skipnc	macro
    27                           	btfsc	3,0
    28  0000                     	endm
    29                           skipnz	macro
    30                           	btfsc	3,2
    31  0000                     	endm
    32  0000                     indf	equ	0
    33  0000                     indf0	equ	0
    34  0002                     pc	equ	2
    35  0002                     pcl	equ	2
    36  0003                     status	equ	3
    37  0004                     fsr	equ	4
    38  0004                     fsr0	equ	4
    39  0001                     c	equ	1
    40  0000                     z	equ	0
    41  000A                     pclath	equ	10
    42                           # 13 "Master_Internal UART.c"
    43                           	psect config,class=CONFIG,delta=2 ;#
    44                           # 13 "Master_Internal UART.c"
    45  2007  3F32               	dw 0x3F32 ;#
    46                           	FNCALL	_main,_send_config
    47                           	FNCALL	_main,_lcd_clr
    48                           	FNCALL	_main,_lcd_goto
    49                           	FNCALL	_main,_send_string
    50                           	FNCALL	_main,_onoff_slave_led1
    51                           	FNCALL	_main,_onoff_slave_led2
    52                           	FNCALL	_main,_onoff_slave_buzzer
    53                           	FNCALL	_main,_internal_uart_write
    54                           	FNCALL	_main,_internal_uart_read
    55                           	FNCALL	_send_string,_send_char
    56                           	FNCALL	_lcd_goto,_send_config
    57                           	FNCALL	_lcd_clr,_send_config
    58                           	FNCALL	_lcd_clr,_delay
    59                           	FNCALL	_send_char,_delay
    60                           	FNCALL	_onoff_slave_buzzer,_internal_uart_write
    61                           	FNCALL	_onoff_slave_buzzer,_internal_uart_read
    62                           	FNCALL	_onoff_slave_led2,_internal_uart_write
    63                           	FNCALL	_onoff_slave_led2,_internal_uart_read
    64                           	FNCALL	_onoff_slave_led1,_internal_uart_write
    65                           	FNCALL	_onoff_slave_led1,_internal_uart_read
    66                           	FNCALL	_send_config,_delay
    67                           	FNROOT	_main
    68                           	global	_dummy
    69                           psect	idataBANK0,class=CODE,space=0,delta=2
    70                           global __pidataBANK0
    71  04CC                     __pidataBANK0:
    72                           	file	"Master_Internal UART.c"
    73                           	line	29
    74                           
    75                           ;initializer for _dummy
    76  04CC  3401               	retlw	01h
    77                           	global	_dummy_byte
    78                           	global	_PORTB
    79  0006                     _PORTB	set	6
    80                           	global	_RCREG
    81  001A                     _RCREG	set	26
    82                           	global	_TXREG
    83  0019                     _TXREG	set	25
    84                           	global	_CREN
    85  00C4                     _CREN	set	196
    86                           	global	_RA0
    87  0028                     _RA0	set	40
    88                           	global	_RA1
    89  0029                     _RA1	set	41
    90                           	global	_RA2
    91  002A                     _RA2	set	42
    92                           	global	_RA3
    93  002B                     _RA3	set	43
    94                           	global	_RA4
    95  002C                     _RA4	set	44
    96                           	global	_RA5
    97  002D                     _RA5	set	45
    98                           	global	_RC0
    99  0038                     _RC0	set	56
   100                           	global	_RC1
   101  0039                     _RC1	set	57
   102                           	global	_RC2
   103  003A                     _RC2	set	58
   104                           	global	_RC3
   105  003B                     _RC3	set	59
   106                           	global	_RC4
   107  003C                     _RC4	set	60
   108                           	global	_RC5
   109  003D                     _RC5	set	61
   110                           	global	_RCIF
   111  0065                     _RCIF	set	101
   112                           	global	_RX9
   113  00C6                     _RX9	set	198
   114                           	global	_SPEN
   115  00C7                     _SPEN	set	199
   116                           	global	_TXIF
   117  0064                     _TXIF	set	100
   118                           	global	_ADCON1
   119  009F                     _ADCON1	set	159
   120                           	global	_SPBRG
   121  0099                     _SPBRG	set	153
   122                           	global	_TRISA
   123  0085                     _TRISA	set	133
   124                           	global	_TRISB
   125  0086                     _TRISB	set	134
   126                           	global	_TRISC
   127  0087                     _TRISC	set	135
   128                           	global	_BRGH
   129  04C2                     _BRGH	set	1218
   130                           	global	_TRISC0
   131  0438                     _TRISC0	set	1080
   132                           	global	_TRISC1
   133  0439                     _TRISC1	set	1081
   134                           	global	_TRISC2
   135  043A                     _TRISC2	set	1082
   136                           	global	_TRISC3
   137  043B                     _TRISC3	set	1083
   138                           	global	_TRISC6
   139  043E                     _TRISC6	set	1086
   140                           	global	_TRISC7
   141  043F                     _TRISC7	set	1087
   142                           	global	_TX9
   143  04C6                     _TX9	set	1222
   144                           	global	_TXEN
   145  04C5                     _TXEN	set	1221
   146                           psect	strings,class=STRING,delta=2
   147                           global __pstrings
   148  0003                     __pstrings:
   149                           ;	global	stringdir,stringtab,__stringbase
   150  0003                     stringtab:
   151                           ;	String table - string pointers are 1 byte each
   152  0003                     stringcode:stringdir:
      + 0003                     stringdir:	
   153  0003  3000               movlw high(stringdir)
   154  0004  008A               movwf pclath
   155  0005  0804               movf fsr,w
   156  0006  0A84               incf fsr
   157  0007  0782               	addwf pc
   158  0008                     __stringbase:
   159  0008  3400               	retlw	0
   160                           psect	strings
   161                           	
   162  0009                     STR_2:	
   163  0009  344D               	retlw	77	;'M'
   164  000A  3441               	retlw	65	;'A'
   165  000B  3453               	retlw	83	;'S'
   166  000C  3454               	retlw	84	;'T'
   167  000D  3445               	retlw	69	;'E'
   168  000E  3452               	retlw	82	;'R'
   169  000F  3420               	retlw	32	;' '
   170  0010  3449               	retlw	73	;'I'
   171  0011  346E               	retlw	110	;'n'
   172  0012  3474               	retlw	116	;'t'
   173  0013  3465               	retlw	101	;'e'
   174  0014  3472               	retlw	114	;'r'
   175  0015  346E               	retlw	110	;'n'
   176  0016  3461               	retlw	97	;'a'
   177  0017  346C               	retlw	108	;'l'
   178  0018  3400               	retlw	0
   179                           psect	strings
   180                           	
   181  0019                     STR_1:	
   182  0019  3443               	retlw	67	;'C'
   183  001A  3479               	retlw	121	;'y'
   184  001B  3474               	retlw	116	;'t'
   185  001C  3472               	retlw	114	;'r'
   186  001D  346F               	retlw	111	;'o'
   187  001E  346E               	retlw	110	;'n'
   188  001F  3420               	retlw	32	;' '
   189  0020  3450               	retlw	80	;'P'
   190  0021  3452               	retlw	82	;'R'
   191  0022  3432               	retlw	50	;'2'
   192  0023  3437               	retlw	55	;'7'
   193  0024  3400               	retlw	0
   194                           psect	strings
   195                           	file	"C:\Users\HATAKE~1\AppData\Local\Temp\s1fg0."
   196                           	line	#
   197                           psect cinit,class=CODE,delta=2
   198                           global start_initialization
   199  04CD                     start_initialization:
   200                           
   201                           psect	bssCOMMON,class=COMMON,space=1
   202                           global __pbssCOMMON
   203  007C                     __pbssCOMMON:
   204  007C                     _dummy_byte:
   205  007C                            ds      1
   206                           
   207                           psect	dataBANK0,class=BANK0,space=1
   208                           global __pdataBANK0
   209  002A                     __pdataBANK0:
   210                           	file	"Master_Internal UART.c"
   211  002A                     _dummy:
   212  002A                            ds      1
   213                           
   214                           ; Clear objects allocated to COMMON
   215                           psect cinit,class=CODE,delta=2
   216  04CD  01FC               	clrf	((__pbssCOMMON)+0)&07Fh
   217                           ; Initialize objects allocated to BANK0
   218                           	global __pidataBANK0
   219                           psect cinit,class=CODE,delta=2
   220  04CE  120A  118A  24CC   	fcall	__pidataBANK0+0		;fetch initializer
              120A  118A         
   221  04D3  00AA               	movwf	__pdataBANK0+0&07fh		
   222                           psect cinit,class=CODE,delta=2
   223                           global end_of_initialization
   224                           
   225                           ;End of C runtime variable initialization code
   226                           
   227  04D4                     end_of_initialization:
   228  04D4  0183               clrf status
   229  04D5  120A  118A  2E63   ljmp _main	;jump to C main() function
   230                           psect	cstackCOMMON,class=COMMON,space=1
   231                           global __pcstackCOMMON
   232  0070                     __pcstackCOMMON:
   233                           	global	?_send_config
   234  0070                     ?_send_config:	; 0 bytes @ 0x0
   235                           	global	?_lcd_clr
   236  0070                     ?_lcd_clr:	; 0 bytes @ 0x0
   237                           	global	?_lcd_goto
   238  0070                     ?_lcd_goto:	; 0 bytes @ 0x0
   239                           	global	?_send_string
   240  0070                     ?_send_string:	; 0 bytes @ 0x0
   241                           	global	?_onoff_slave_led1
   242  0070                     ?_onoff_slave_led1:	; 0 bytes @ 0x0
   243                           	global	?_onoff_slave_led2
   244  0070                     ?_onoff_slave_led2:	; 0 bytes @ 0x0
   245                           	global	?_onoff_slave_buzzer
   246  0070                     ?_onoff_slave_buzzer:	; 0 bytes @ 0x0
   247                           	global	?_internal_uart_write
   248  0070                     ?_internal_uart_write:	; 0 bytes @ 0x0
   249                           	global	??_internal_uart_write
   250  0070                     ??_internal_uart_write:	; 0 bytes @ 0x0
   251                           	global	??_internal_uart_read
   252  0070                     ??_internal_uart_read:	; 0 bytes @ 0x0
   253                           	global	?_main
   254  0070                     ?_main:	; 0 bytes @ 0x0
   255                           	global	?_delay
   256  0070                     ?_delay:	; 0 bytes @ 0x0
   257                           	global	?_send_char
   258  0070                     ?_send_char:	; 0 bytes @ 0x0
   259                           	global	?_internal_uart_read
   260  0070                     ?_internal_uart_read:	; 1 bytes @ 0x0
   261                           	global	internal_uart_write@data
   262  0070                     internal_uart_write@data:	; 1 bytes @ 0x0
   263                           	global	delay@data
   264  0070                     delay@data:	; 4 bytes @ 0x0
   265  0070                     	ds	1
   266                           	global	internal_uart_read@rec_data
   267  0071                     internal_uart_read@rec_data:	; 1 bytes @ 0x1
   268  0071                     	ds	1
   269                           	global	??_onoff_slave_led1
   270  0072                     ??_onoff_slave_led1:	; 0 bytes @ 0x2
   271                           	global	??_onoff_slave_led2
   272  0072                     ??_onoff_slave_led2:	; 0 bytes @ 0x2
   273                           	global	??_onoff_slave_buzzer
   274  0072                     ??_onoff_slave_buzzer:	; 0 bytes @ 0x2
   275  0072                     	ds	1
   276                           	global	onoff_slave_led1@a
   277  0073                     onoff_slave_led1@a:	; 1 bytes @ 0x3
   278                           	global	onoff_slave_led2@b
   279  0073                     onoff_slave_led2@b:	; 1 bytes @ 0x3
   280                           	global	onoff_slave_buzzer@c
   281  0073                     onoff_slave_buzzer@c:	; 1 bytes @ 0x3
   282  0073                     	ds	1
   283                           	global	??_delay
   284  0074                     ??_delay:	; 0 bytes @ 0x4
   285  0074                     	ds	4
   286                           	global	??_send_config
   287  0078                     ??_send_config:	; 0 bytes @ 0x8
   288                           	global	??_send_char
   289  0078                     ??_send_char:	; 0 bytes @ 0x8
   290                           	global	send_config@data
   291  0078                     send_config@data:	; 1 bytes @ 0x8
   292                           	global	send_char@data
   293  0078                     send_char@data:	; 1 bytes @ 0x8
   294  0078                     	ds	1
   295                           	global	??_lcd_clr
   296  0079                     ??_lcd_clr:	; 0 bytes @ 0x9
   297                           	global	??_lcd_goto
   298  0079                     ??_lcd_goto:	; 0 bytes @ 0x9
   299                           	global	??_send_string
   300  0079                     ??_send_string:	; 0 bytes @ 0x9
   301  0079                     	ds	1
   302                           	global	send_string@s
   303  007A                     send_string@s:	; 1 bytes @ 0xA
   304                           	global	lcd_goto@data
   305  007A                     lcd_goto@data:	; 1 bytes @ 0xA
   306  007A                     	ds	1
   307                           	global	??_main
   308  007B                     ??_main:	; 0 bytes @ 0xB
   309  007B                     	ds	1
   310                           psect	cstackBANK0,class=BANK0,space=1
   311                           global __pcstackBANK0
   312  0020                     __pcstackBANK0:
   313                           	global	main@temp
   314  0020                     main@temp:	; 1 bytes @ 0x0
   315  0020                     	ds	1
   316                           	global	main@slave_led1_flag
   317  0021                     main@slave_led1_flag:	; 1 bytes @ 0x1
   318  0021                     	ds	1
   319                           	global	main@slave_led2_flag
   320  0022                     main@slave_led2_flag:	; 1 bytes @ 0x2
   321  0022                     	ds	1
   322                           	global	main@slave_buzzer_flag
   323  0023                     main@slave_buzzer_flag:	; 1 bytes @ 0x3
   324  0023                     	ds	1
   325                           	global	main@sw1_flag
   326  0024                     main@sw1_flag:	; 1 bytes @ 0x4
   327  0024                     	ds	1
   328                           	global	main@sw2_flag
   329  0025                     main@sw2_flag:	; 1 bytes @ 0x5
   330  0025                     	ds	1
   331                           	global	main@sw3_flag
   332  0026                     main@sw3_flag:	; 1 bytes @ 0x6
   333  0026                     	ds	1
   334                           	global	main@slave_sw1_flag
   335  0027                     main@slave_sw1_flag:	; 1 bytes @ 0x7
   336  0027                     	ds	1
   337                           	global	main@slave_sw2_flag
   338  0028                     main@slave_sw2_flag:	; 1 bytes @ 0x8
   339  0028                     	ds	1
   340                           	global	main@slave_sw3_flag
   341  0029                     main@slave_sw3_flag:	; 1 bytes @ 0x9
   342  0029                     	ds	1
   343 ;;Data sizes: Strings 28, constant 0, data 1, bss 1, persistent 0 stack 0
   344 ;;Auto spaces:   Size  Autos    Used
   345 ;; COMMON          14     12      13
   346 ;; BANK0           80     10      11
   347 ;; BANK1           80      0       0
   348 ;; BANK3           96      0       0
   349 ;; BANK2           96      0       0
   350                           
   351 ;;
   352 ;; Pointer list with targets:
   353                           
   354 ;; send_string@s	PTR const unsigned char  size(1) Largest target is 16
   355 ;;		 -> STR_2(CODE[16]), STR_1(CODE[12]), 
   356 ;;
   357                           
   358                           
   359 ;;
   360 ;; Critical Paths under _main in COMMON
   361 ;;
   362 ;;   _main->_lcd_goto
   363 ;;   _main->_send_string
   364 ;;   _send_string->_send_char
   365 ;;   _lcd_goto->_send_config
   366 ;;   _lcd_clr->_send_config
   367 ;;   _send_char->_delay
   368 ;;   _onoff_slave_buzzer->_internal_uart_read
   369 ;;   _onoff_slave_led2->_internal_uart_read
   370 ;;   _onoff_slave_led1->_internal_uart_read
   371 ;;   _send_config->_delay
   372 ;;
   373 ;; Critical Paths under _main in BANK0
   374 ;;
   375 ;;   None.
   376 ;;
   377 ;; Critical Paths under _main in BANK1
   378 ;;
   379 ;;   None.
   380 ;;
   381 ;; Critical Paths under _main in BANK3
   382 ;;
   383 ;;   None.
   384 ;;
   385 ;; Critical Paths under _main in BANK2
   386 ;;
   387 ;;   None.
   388                           
   389 ;;
   390 ;;Main: autosize = 0, tempsize = 1, incstack = 0, save=0
   391 ;;
   392                           
   393 ;;
   394 ;;Call Graph Tables:
   395 ;;
   396 ;; ---------------------------------------------------------------------------------
   397 ;; (Depth) Function   	        Calls       Base Space   Used Autos Params    Refs
   398 ;; ---------------------------------------------------------------------------------
   399 ;; (0) _main                                                11    11      0    1137
   400 ;;                                             11 COMMON     1     1      0
   401 ;;                                              0 BANK0     10    10      0
   402 ;;                        _send_config
   403 ;;                            _lcd_clr
   404 ;;                           _lcd_goto
   405 ;;                        _send_string
   406 ;;                   _onoff_slave_led1
   407 ;;                   _onoff_slave_led2
   408 ;;                 _onoff_slave_buzzer
   409 ;;                _internal_uart_write
   410 ;;                 _internal_uart_read
   411 ;; ---------------------------------------------------------------------------------
   412 ;; (1) _send_string                                          2     2      0     134
   413 ;;                                              9 COMMON     2     2      0
   414 ;;                          _send_char
   415 ;; ---------------------------------------------------------------------------------
   416 ;; (1) _lcd_goto                                             2     2      0     156
   417 ;;                                              9 COMMON     2     2      0
   418 ;;                        _send_config
   419 ;; ---------------------------------------------------------------------------------
   420 ;; (1) _lcd_clr                                              0     0      0     112
   421 ;;                        _send_config
   422 ;;                              _delay
   423 ;; ---------------------------------------------------------------------------------
   424 ;; (2) _send_char                                            1     1      0      67
   425 ;;                                              8 COMMON     1     1      0
   426 ;;                              _delay
   427 ;; ---------------------------------------------------------------------------------
   428 ;; (1) _onoff_slave_buzzer                                   2     2      0      67
   429 ;;                                              2 COMMON     2     2      0
   430 ;;                _internal_uart_write
   431 ;;                 _internal_uart_read
   432 ;; ---------------------------------------------------------------------------------
   433 ;; (1) _onoff_slave_led2                                     2     2      0      67
   434 ;;                                              2 COMMON     2     2      0
   435 ;;                _internal_uart_write
   436 ;;                 _internal_uart_read
   437 ;; ---------------------------------------------------------------------------------
   438 ;; (1) _onoff_slave_led1                                     2     2      0      67
   439 ;;                                              2 COMMON     2     2      0
   440 ;;                _internal_uart_write
   441 ;;                 _internal_uart_read
   442 ;; ---------------------------------------------------------------------------------
   443 ;; (2) _send_config                                          1     1      0      67
   444 ;;                                              8 COMMON     1     1      0
   445 ;;                              _delay
   446 ;; ---------------------------------------------------------------------------------
   447 ;; (3) _delay                                                8     4      4      45
   448 ;;                                              0 COMMON     8     4      4
   449 ;; ---------------------------------------------------------------------------------
   450 ;; (1) _internal_uart_read                                   2     2      0      23
   451 ;;                                              0 COMMON     2     2      0
   452 ;; ---------------------------------------------------------------------------------
   453 ;; (1) _internal_uart_write                                  1     1      0      22
   454 ;;                                              0 COMMON     1     1      0
   455 ;; ---------------------------------------------------------------------------------
   456 ;; Estimated maximum stack depth 3
   457 ;; ---------------------------------------------------------------------------------
   458                           
   459 ;; Call Graph Graphs:
   460                           
   461 ;; _main (ROOT)
   462 ;;   _send_config
   463 ;;     _delay
   464 ;;   _lcd_clr
   465 ;;     _send_config
   466 ;;       _delay
   467 ;;     _delay
   468 ;;   _lcd_goto
   469 ;;     _send_config
   470 ;;       _delay
   471 ;;   _send_string
   472 ;;     _send_char
   473 ;;       _delay
   474 ;;   _onoff_slave_led1
   475 ;;     _internal_uart_write
   476 ;;     _internal_uart_read
   477 ;;   _onoff_slave_led2
   478 ;;     _internal_uart_write
   479 ;;     _internal_uart_read
   480 ;;   _onoff_slave_buzzer
   481 ;;     _internal_uart_write
   482 ;;     _internal_uart_read
   483 ;;   _internal_uart_write
   484 ;;   _internal_uart_read
   485 ;;
   486                           
   487 ;; Address spaces:
   488                           
   489 ;;Name               Size   Autos  Total    Cost      Usage
   490 ;;BANK3               60      0       0       9        0.0%
   491 ;;BITBANK3            60      0       0       8        0.0%
   492 ;;SFR3                 0      0       0       4        0.0%
   493 ;;BITSFR3              0      0       0       4        0.0%
   494 ;;BANK2               60      0       0      11        0.0%
   495 ;;BITBANK2            60      0       0      10        0.0%
   496 ;;SFR2                 0      0       0       5        0.0%
   497 ;;BITSFR2              0      0       0       5        0.0%
   498 ;;SFR1                 0      0       0       2        0.0%
   499 ;;BITSFR1              0      0       0       2        0.0%
   500 ;;BANK1               50      0       0       7        0.0%
   501 ;;BITBANK1            50      0       0       6        0.0%
   502 ;;CODE                 0      0       0       0        0.0%
   503 ;;DATA                 0      0      1B      12        0.0%
   504 ;;ABS                  0      0      18       3        0.0%
   505 ;;NULL                 0      0       0       0        0.0%
   506 ;;STACK                0      0       3       2        0.0%
   507 ;;BANK0               50      A       B       5       13.8%
   508 ;;BITBANK0            50      0       0       4        0.0%
   509 ;;SFR0                 0      0       0       1        0.0%
   510 ;;BITSFR0              0      0       0       1        0.0%
   511 ;;COMMON               E      C       D       1       92.9%
   512 ;;BITCOMMON            E      0       0       0        0.0%
   513 ;;EEDATA             100      0       0       0        0.0%
   514                           
   515                           	global	_main
   516                           psect	maintext,global,class=CODE,delta=2
   517                           global __pmaintext
   518  0663                     __pmaintext:
   519                           
   520 ;; *************** function _main *****************
   521 ;; Defined at:
   522 ;;		line 48 in file "Master_Internal UART.c"
   523 ;; Parameters:    Size  Location     Type
   524 ;;		None
   525 ;; Auto vars:     Size  Location     Type
   526 ;;  slave_sw3_fl    1    9[BANK0 ] unsigned char 
   527 ;;  slave_sw2_fl    1    8[BANK0 ] unsigned char 
   528 ;;  slave_sw1_fl    1    7[BANK0 ] unsigned char 
   529 ;;  sw3_flag        1    6[BANK0 ] unsigned char 
   530 ;;  sw2_flag        1    5[BANK0 ] unsigned char 
   531 ;;  sw1_flag        1    4[BANK0 ] unsigned char 
   532 ;;  slave_buzzer    1    3[BANK0 ] unsigned char 
   533 ;;  slave_led2_f    1    2[BANK0 ] unsigned char 
   534 ;;  slave_led1_f    1    1[BANK0 ] unsigned char 
   535 ;;  temp            1    0[BANK0 ] unsigned char 
   536 ;; Return value:  Size  Location     Type
   537 ;;		None               void
   538 ;; Registers used:
   539 ;;		wreg, fsr0l, fsr0h, status,2, status,0, pclath, cstack
   540 ;; Tracked objects:
   541 ;;		On entry : 17F/0
   542 ;;		On exit  : 0/0
   543 ;;		Unchanged: 0/0
   544 ;; Data sizes:     COMMON   BANK0   BANK1   BANK3   BANK2
   545 ;;      Params:         0       0       0       0       0
   546 ;;      Locals:         0      10       0       0       0
   547 ;;      Temps:          1       0       0       0       0
   548 ;;      Totals:         1      10       0       0       0
   549 ;;Total ram usage:       11 bytes
   550 ;; Hardware stack levels required when called:    3
   551 ;; This function calls:
   552 ;;		_send_config
   553 ;;		_lcd_clr
   554 ;;		_lcd_goto
   555 ;;		_send_string
   556 ;;		_onoff_slave_led1
   557 ;;		_onoff_slave_led2
   558 ;;		_onoff_slave_buzzer
   559 ;;		_internal_uart_write
   560 ;;		_internal_uart_read
   561 ;; This function is called by:
   562 ;;		Startup code after reset
   563 ;; This function uses a non-reentrant model
   564 ;;
   565                           psect	maintext
   566                           	file	"Master_Internal UART.c"
   567                           	line	48
   568                           	global	__size_of_main
   569  019D                     	__size_of_main	equ	__end_of_main-_main
   570                           	
   571  0663                     _main:	
   572                           	opt	stack 5
   573                           ; Regs used in _main: [wreg-fsr0h+status,2+status,0+pclath+cstack]
   574                           	line	51
   575                           	
   576  0663                     l3136:	
   577                           ;Master_Internal UART.c: 50: unsigned char temp;
   578                           ;Master_Internal UART.c: 51: unsigned char sw1_flag=1;
   579  0663  1283               	bcf	status, 5	;RP0=0, select bank0
   580  0664  1303               	bcf	status, 6	;RP1=0, select bank0
   581  0665  01A4               	clrf	(main@sw1_flag)
   582  0666  1403               	bsf	status,0
   583  0667  0DA4               	rlf	(main@sw1_flag),f
   584                           	line	52
   585                           	
   586  0668                     l3138:	
   587                           ;Master_Internal UART.c: 52: unsigned char slave_led1_flag=0;
   588  0668  1003               	clrc
   589  0669  3000               	movlw	0
   590  066A  1803               	btfsc	status,0
   591  066B  3001               	movlw	1
   592  066C  00A1               	movwf	(main@slave_led1_flag)
   593                           	line	53
   594                           	
   595  066D                     l3140:	
   596                           ;Master_Internal UART.c: 53: unsigned char sw2_flag=1;
   597  066D  01A5               	clrf	(main@sw2_flag)
   598  066E  1403               	bsf	status,0
   599  066F  0DA5               	rlf	(main@sw2_flag),f
   600                           	line	54
   601                           ;Master_Internal UART.c: 54: unsigned char slave_led2_flag=0;
   602  0670  1003               	clrc
   603  0671  3000               	movlw	0
   604  0672  1803               	btfsc	status,0
   605  0673  3001               	movlw	1
   606  0674  00A2               	movwf	(main@slave_led2_flag)
   607                           	line	55
   608                           	
   609  0675                     l3142:	
   610                           ;Master_Internal UART.c: 55: unsigned char sw3_flag=1;
   611  0675  01A6               	clrf	(main@sw3_flag)
   612  0676  1403               	bsf	status,0
   613  0677  0DA6               	rlf	(main@sw3_flag),f
   614                           	line	56
   615                           	
   616  0678                     l3144:	
   617                           ;Master_Internal UART.c: 56: unsigned char slave_buzzer_flag=0;
   618  0678  1003               	clrc
   619  0679  3000               	movlw	0
   620  067A  1803               	btfsc	status,0
   621  067B  3001               	movlw	1
   622  067C  00A3               	movwf	(main@slave_buzzer_flag)
   623                           	line	57
   624                           ;Master_Internal UART.c: 57: unsigned char slave_sw1_flag=1;
   625  067D  01A7               	clrf	(main@slave_sw1_flag)
   626  067E  1403               	bsf	status,0
   627  067F  0DA7               	rlf	(main@slave_sw1_flag),f
   628                           	line	58
   629                           ;Master_Internal UART.c: 58: unsigned char slave_sw2_flag=1;
   630  0680  01A8               	clrf	(main@slave_sw2_flag)
   631  0681  1403               	bsf	status,0
   632  0682  0DA8               	rlf	(main@slave_sw2_flag),f
   633                           	line	59
   634                           ;Master_Internal UART.c: 59: unsigned char slave_sw3_flag=1;
   635  0683  01A9               	clrf	(main@slave_sw3_flag)
   636  0684  1403               	bsf	status,0
   637  0685  0DA9               	rlf	(main@slave_sw3_flag),f
   638                           	line	62
   639                           	
   640  0686                     l3146:	
   641                           ;Master_Internal UART.c: 62: TRISB = 0b00000000;
   642  0686  1683               	bsf	status, 5	;RP0=1, select bank1
   643  0687  1303               	bcf	status, 6	;RP1=0, select bank1
   644  0688  0186               	clrf	(134)^080h	;volatile
   645                           	line	63
   646                           	
   647  0689                     l3148:	
   648                           ;Master_Internal UART.c: 63: TRISC = 0b00000000;
   649  0689  0187               	clrf	(135)^080h	;volatile
   650                           	line	64
   651                           	
   652  068A                     l3150:	
   653                           ;Master_Internal UART.c: 64: TRISA = 0b00011100;
   654  068A  301C               	movlw	(01Ch)
   655  068B  0085               	movwf	(133)^080h	;volatile
   656                           	line	65
   657                           	
   658  068C                     l3152:	
   659                           ;Master_Internal UART.c: 65: ADCON1 = 0b00000110;
   660  068C  3006               	movlw	(06h)
   661  068D  009F               	movwf	(159)^080h	;volatile
   662                           	line	68
   663                           	
   664  068E                     l3154:	
   665                           ;Master_Internal UART.c: 68: send_config(0b00000001);
   666  068E  3001               	movlw	(01h)
   667  068F  120A  118A  2524   	fcall	_send_config
              120A  118A         
   668                           	line	69
   669                           	
   670  0694                     l3156:	
   671                           ;Master_Internal UART.c: 69: send_config(0b00000010);
   672  0694  3002               	movlw	(02h)
   673  0695  120A  118A  2524   	fcall	_send_config
              120A  118A         
   674                           	line	70
   675                           	
   676  069A                     l3158:	
   677                           ;Master_Internal UART.c: 70: send_config(0b00000110);
   678  069A  3006               	movlw	(06h)
   679  069B  120A  118A  2524   	fcall	_send_config
              120A  118A         
   680                           	line	71
   681                           	
   682  06A0                     l3160:	
   683                           ;Master_Internal UART.c: 71: send_config(0b00001100);
   684  06A0  300C               	movlw	(0Ch)
   685  06A1  120A  118A  2524   	fcall	_send_config
              120A  118A         
   686                           	line	72
   687                           	
   688  06A6                     l3162:	
   689                           ;Master_Internal UART.c: 72: send_config(0b00111000);
   690  06A6  3038               	movlw	(038h)
   691  06A7  120A  118A  2524   	fcall	_send_config
              120A  118A         
   692                           	line	75
   693                           	
   694  06AC                     l3164:	
   695                           ;Master_Internal UART.c: 75: RA1=0;
   696  06AC  1283               	bcf	status, 5	;RP0=0, select bank0
   697  06AD  1303               	bcf	status, 6	;RP1=0, select bank0
   698  06AE  1085               	bcf	(41/8),(41)&7
   699                           	line	76
   700                           	
   701  06AF                     l3166:	
   702                           ;Master_Internal UART.c: 76: RA0=0;
   703  06AF  1005               	bcf	(40/8),(40)&7
   704                           	line	77
   705                           	
   706  06B0                     l3168:	
   707                           ;Master_Internal UART.c: 77: RA5=0;
   708  06B0  1285               	bcf	(45/8),(45)&7
   709                           	line	78
   710                           	
   711  06B1                     l3170:	
   712                           ;Master_Internal UART.c: 78: PORTB=0;
   713  06B1  0186               	clrf	(6)	;volatile
   714                           	line	79
   715                           	
   716  06B2                     l3172:	
   717                           ;Master_Internal UART.c: 79: lcd_clr();
   718  06B2  120A  118A  24F3   	fcall	_lcd_clr
              120A  118A         
   719                           	line	80
   720                           	
   721  06B7                     l3174:	
   722                           ;Master_Internal UART.c: 80: lcd_goto(0);
   723  06B7  3000               	movlw	(0)
   724  06B8  120A  118A  2507   	fcall	_lcd_goto
              120A  118A         
   725                           	line	81
   726                           	
   727  06BD                     l3176:	
   728                           ;Master_Internal UART.c: 81: send_string("Cytron PR27");
   729  06BD  3011               	movlw	((STR_1-__stringbase))&0ffh
   730  06BE  120A  118A  256E   	fcall	_send_string
              120A  118A         
   731                           	line	82
   732                           	
   733  06C3                     l3178:	
   734                           ;Master_Internal UART.c: 82: lcd_goto(20);
   735  06C3  3014               	movlw	(014h)
   736  06C4  120A  118A  2507   	fcall	_lcd_goto
              120A  118A         
   737                           	line	83
   738                           	
   739  06C9                     l3180:	
   740                           ;Master_Internal UART.c: 83: send_string("MASTER Internal");
   741  06C9  3001               	movlw	((STR_2-__stringbase))&0ffh
   742  06CA  120A  118A  256E   	fcall	_send_string
              120A  118A         
   743                           	line	86
   744                           	
   745  06CF                     l3182:	
   746                           ;Master_Internal UART.c: 86: TRISC6=0;
   747  06CF  1683               	bsf	status, 5	;RP0=1, select bank1
   748  06D0  1303               	bcf	status, 6	;RP1=0, select bank1
   749  06D1  1307               	bcf	(1086/8)^080h,(1086)&7
   750                           	line	87
   751                           	
   752  06D2                     l3184:	
   753                           ;Master_Internal UART.c: 87: TRISC7=1;
   754  06D2  1787               	bsf	(1087/8)^080h,(1087)&7
   755                           	line	88
   756                           	
   757  06D3                     l3186:	
   758                           ;Master_Internal UART.c: 88: SPBRG=129;
   759  06D3  3081               	movlw	(081h)
   760  06D4  0099               	movwf	(153)^080h	;volatile
   761                           	line	89
   762                           	
   763  06D5                     l3188:	
   764                           ;Master_Internal UART.c: 89: BRGH=1;
   765  06D5  1518               	bsf	(1218/8)^080h,(1218)&7
   766                           	line	90
   767                           	
   768  06D6                     l3190:	
   769                           ;Master_Internal UART.c: 90: TXEN=1;
   770  06D6  1698               	bsf	(1221/8)^080h,(1221)&7
   771                           	line	91
   772                           	
   773  06D7                     l3192:	
   774                           ;Master_Internal UART.c: 91: TX9 =0;
   775  06D7  1318               	bcf	(1222/8)^080h,(1222)&7
   776                           	line	92
   777                           	
   778  06D8                     l3194:	
   779                           ;Master_Internal UART.c: 92: RX9 =0;
   780  06D8  1283               	bcf	status, 5	;RP0=0, select bank0
   781  06D9  1303               	bcf	status, 6	;RP1=0, select bank0
   782  06DA  1318               	bcf	(198/8),(198)&7
   783                           	line	93
   784                           	
   785  06DB                     l3196:	
   786                           ;Master_Internal UART.c: 93: CREN=1;
   787  06DB  1618               	bsf	(196/8),(196)&7
   788                           	line	94
   789                           	
   790  06DC                     l3198:	
   791                           ;Master_Internal UART.c: 94: SPEN=1;
   792  06DC  1798               	bsf	(199/8),(199)&7
   793                           	line	95
   794                           	
   795  06DD                     l3200:	
   796                           ;Master_Internal UART.c: 95: temp=RCREG;
   797  06DD  081A               	movf	(26),w	;volatile
   798  06DE  00FB               	movwf	(??_main+0)+0
   799  06DF  087B               	movf	(??_main+0)+0,w
   800  06E0  00A0               	movwf	(main@temp)
   801                           	line	96
   802                           	
   803  06E1                     l3202:	
   804                           ;Master_Internal UART.c: 96: temp=RCREG;
   805  06E1  081A               	movf	(26),w	;volatile
   806  06E2  00FB               	movwf	(??_main+0)+0
   807  06E3  087B               	movf	(??_main+0)+0,w
   808  06E4  00A0               	movwf	(main@temp)
   809                           	line	98
   810                           	
   811  06E5                     l3204:	
   812                           ;Master_Internal UART.c: 98: RA1=0;
   813  06E5  1085               	bcf	(41/8),(41)&7
   814                           	line	99
   815                           	
   816  06E6                     l3206:	
   817                           ;Master_Internal UART.c: 99: RA0=0;
   818  06E6  1005               	bcf	(40/8),(40)&7
   819                           	line	100
   820                           	
   821  06E7                     l3208:	
   822                           ;Master_Internal UART.c: 100: RA5=0;
   823  06E7  1285               	bcf	(45/8),(45)&7
   824  06E8  2EE9               	goto	l3210
   825                           	line	102
   826                           ;Master_Internal UART.c: 102: while(1)
   827                           	
   828  06E9                     l515:	
   829                           	line	106
   830                           	
   831  06E9                     l3210:	
   832                           ;Master_Internal UART.c: 103: {
   833                           ;Master_Internal UART.c: 106: if(RA2==0)
   834  06E9  1905               	btfsc	(42/8),(42)&7
   835  06EA  2EEC               	goto	u3101
   836  06EB  2EED               	goto	u3100
   837  06EC                     u3101:
   838  06EC  2F05               	goto	l3220
   839  06ED                     u3100:
   840                           	line	108
   841                           	
   842  06ED                     l3212:	
   843                           ;Master_Internal UART.c: 107: {
   844                           ;Master_Internal UART.c: 108: if(sw1_flag!=0)
   845  06ED  0824               	movf	(main@sw1_flag),w
   846  06EE  1D03               	skipz
   847  06EF  2EF1               	goto	u3110
   848  06F0  2F11               	goto	l3224
   849  06F1                     u3110:
   850                           	line	110
   851                           	
   852  06F1                     l3214:	
   853                           ;Master_Internal UART.c: 109: {
   854                           ;Master_Internal UART.c: 110: sw1_flag=0;
   855  06F1  1003               	clrc
   856  06F2  3000               	movlw	0
   857  06F3  1803               	btfsc	status,0
   858  06F4  3001               	movlw	1
   859  06F5  00A4               	movwf	(main@sw1_flag)
   860                           	line	111
   861                           	
   862  06F6                     l3216:	
   863                           ;Master_Internal UART.c: 111: slave_led1_flag=!slave_led1_flag;
   864  06F6  08A1               	movf	(main@slave_led1_flag)
   865  06F7  3000               	movlw	0
   866  06F8  1903               	skipnz
   867  06F9  3001               	movlw	1
   868  06FA  00FB               	movwf	(??_main+0)+0
   869  06FB  087B               	movf	(??_main+0)+0,w
   870  06FC  00A1               	movwf	(main@slave_led1_flag)
   871                           	line	112
   872                           	
   873  06FD                     l3218:	
   874                           ;Master_Internal UART.c: 112: onoff_slave_led1(slave_led1_flag);
   875  06FD  0821               	movf	(main@slave_led1_flag),w
   876  06FE  120A  118A  25C4   	fcall	_onoff_slave_led1
              120A  118A         
   877  0703  2F11               	goto	l3224
   878                           	line	113
   879                           	
   880  0704                     l517:	
   881                           	line	114
   882                           ;Master_Internal UART.c: 113: }
   883                           ;Master_Internal UART.c: 114: }
   884  0704  2F11               	goto	l3224
   885                           	line	115
   886                           	
   887  0705                     l516:	
   888                           	line	117
   889                           	
   890  0705                     l3220:	
   891                           ;Master_Internal UART.c: 115: else
   892                           ;Master_Internal UART.c: 116: {
   893                           ;Master_Internal UART.c: 117: if(sw1_flag==0) sw1_flag=1;
   894  0705  1283               	bcf	status, 5	;RP0=0, select bank0
   895  0706  1303               	bcf	status, 6	;RP1=0, select bank0
   896  0707  08A4               	movf	(main@sw1_flag),f
   897  0708  1D03               	skipz
   898  0709  2F0B               	goto	u3121
   899  070A  2F0C               	goto	u3120
   900  070B                     u3121:
   901  070B  2F11               	goto	l3224
   902  070C                     u3120:
   903                           	
   904  070C                     l3222:	
   905  070C  01A4               	clrf	(main@sw1_flag)
   906  070D  1403               	bsf	status,0
   907  070E  0DA4               	rlf	(main@sw1_flag),f
   908  070F  2F11               	goto	l3224
   909                           	
   910  0710                     l519:	
   911  0710  2F11               	goto	l3224
   912                           	line	118
   913                           	
   914  0711                     l518:	
   915                           	line	121
   916                           	
   917  0711                     l3224:	
   918                           ;Master_Internal UART.c: 118: }
   919                           ;Master_Internal UART.c: 121: if(RA3==0)
   920  0711  1283               	bcf	status, 5	;RP0=0, select bank0
   921  0712  1303               	bcf	status, 6	;RP1=0, select bank0
   922  0713  1985               	btfsc	(43/8),(43)&7
   923  0714  2F16               	goto	u3131
   924  0715  2F17               	goto	u3130
   925  0716                     u3131:
   926  0716  2F2F               	goto	l3234
   927  0717                     u3130:
   928                           	line	123
   929                           	
   930  0717                     l3226:	
   931                           ;Master_Internal UART.c: 122: {
   932                           ;Master_Internal UART.c: 123: if(sw2_flag!=0)
   933  0717  0825               	movf	(main@sw2_flag),w
   934  0718  1D03               	skipz
   935  0719  2F1B               	goto	u3140
   936  071A  2F3B               	goto	l3238
   937  071B                     u3140:
   938                           	line	125
   939                           	
   940  071B                     l3228:	
   941                           ;Master_Internal UART.c: 124: {
   942                           ;Master_Internal UART.c: 125: sw2_flag=0;
   943  071B  1003               	clrc
   944  071C  3000               	movlw	0
   945  071D  1803               	btfsc	status,0
   946  071E  3001               	movlw	1
   947  071F  00A5               	movwf	(main@sw2_flag)
   948                           	line	126
   949                           	
   950  0720                     l3230:	
   951                           ;Master_Internal UART.c: 126: slave_led2_flag=!slave_led2_flag;
   952  0720  08A2               	movf	(main@slave_led2_flag)
   953  0721  3000               	movlw	0
   954  0722  1903               	skipnz
   955  0723  3001               	movlw	1
   956  0724  00FB               	movwf	(??_main+0)+0
   957  0725  087B               	movf	(??_main+0)+0,w
   958  0726  00A2               	movwf	(main@slave_led2_flag)
   959                           	line	127
   960                           	
   961  0727                     l3232:	
   962                           ;Master_Internal UART.c: 127: onoff_slave_led2(slave_led2_flag);
   963  0727  0822               	movf	(main@slave_led2_flag),w
   964  0728  120A  118A  25F9   	fcall	_onoff_slave_led2
              120A  118A         
   965  072D  2F3B               	goto	l3238
   966                           	line	128
   967                           	
   968  072E                     l521:	
   969                           	line	129
   970                           ;Master_Internal UART.c: 128: }
   971                           ;Master_Internal UART.c: 129: }
   972  072E  2F3B               	goto	l3238
   973                           	line	130
   974                           	
   975  072F                     l520:	
   976                           	line	132
   977                           	
   978  072F                     l3234:	
   979                           ;Master_Internal UART.c: 130: else
   980                           ;Master_Internal UART.c: 131: {
   981                           ;Master_Internal UART.c: 132: if(sw2_flag==0) sw2_flag=1;
   982  072F  1283               	bcf	status, 5	;RP0=0, select bank0
   983  0730  1303               	bcf	status, 6	;RP1=0, select bank0
   984  0731  08A5               	movf	(main@sw2_flag),f
   985  0732  1D03               	skipz
   986  0733  2F35               	goto	u3151
   987  0734  2F36               	goto	u3150
   988  0735                     u3151:
   989  0735  2F3B               	goto	l3238
   990  0736                     u3150:
   991                           	
   992  0736                     l3236:	
   993  0736  01A5               	clrf	(main@sw2_flag)
   994  0737  1403               	bsf	status,0
   995  0738  0DA5               	rlf	(main@sw2_flag),f
   996  0739  2F3B               	goto	l3238
   997                           	
   998  073A                     l523:	
   999  073A  2F3B               	goto	l3238
  1000                           	line	133
  1001                           	
  1002  073B                     l522:	
  1003                           	line	137
  1004                           	
  1005  073B                     l3238:	
  1006                           ;Master_Internal UART.c: 133: }
  1007                           ;Master_Internal UART.c: 137: if(RA4==0)
  1008  073B  1283               	bcf	status, 5	;RP0=0, select bank0
  1009  073C  1303               	bcf	status, 6	;RP1=0, select bank0
  1010  073D  1A05               	btfsc	(44/8),(44)&7
  1011  073E  2F40               	goto	u3161
  1012  073F  2F41               	goto	u3160
  1013  0740                     u3161:
  1014  0740  2F59               	goto	l3248
  1015  0741                     u3160:
  1016                           	line	139
  1017                           	
  1018  0741                     l3240:	
  1019                           ;Master_Internal UART.c: 138: {
  1020                           ;Master_Internal UART.c: 139: if(sw3_flag!=0)
  1021  0741  0826               	movf	(main@sw3_flag),w
  1022  0742  1D03               	skipz
  1023  0743  2F45               	goto	u3170
  1024  0744  2F65               	goto	l3252
  1025  0745                     u3170:
  1026                           	line	141
  1027                           	
  1028  0745                     l3242:	
  1029                           ;Master_Internal UART.c: 140: {
  1030                           ;Master_Internal UART.c: 141: sw3_flag=0;
  1031  0745  1003               	clrc
  1032  0746  3000               	movlw	0
  1033  0747  1803               	btfsc	status,0
  1034  0748  3001               	movlw	1
  1035  0749  00A6               	movwf	(main@sw3_flag)
  1036                           	line	142
  1037                           	
  1038  074A                     l3244:	
  1039                           ;Master_Internal UART.c: 142: slave_buzzer_flag=!slave_buzzer_flag;
  1040  074A  08A3               	movf	(main@slave_buzzer_flag)
  1041  074B  3000               	movlw	0
  1042  074C  1903               	skipnz
  1043  074D  3001               	movlw	1
  1044  074E  00FB               	movwf	(??_main+0)+0
  1045  074F  087B               	movf	(??_main+0)+0,w
  1046  0750  00A3               	movwf	(main@slave_buzzer_flag)
  1047                           	line	143
  1048                           	
  1049  0751                     l3246:	
  1050                           ;Master_Internal UART.c: 143: onoff_slave_buzzer(slave_buzzer_flag);
  1051  0751  0823               	movf	(main@slave_buzzer_flag),w
  1052  0752  120A  118A  262E   	fcall	_onoff_slave_buzzer
              120A  118A         
  1053  0757  2F65               	goto	l3252
  1054                           	line	144
  1055                           	
  1056  0758                     l525:	
  1057                           	line	145
  1058                           ;Master_Internal UART.c: 144: }
  1059                           ;Master_Internal UART.c: 145: }
  1060  0758  2F65               	goto	l3252
  1061                           	line	146
  1062                           	
  1063  0759                     l524:	
  1064                           	line	148
  1065                           	
  1066  0759                     l3248:	
  1067                           ;Master_Internal UART.c: 146: else
  1068                           ;Master_Internal UART.c: 147: {
  1069                           ;Master_Internal UART.c: 148: if(sw3_flag==0) sw3_flag=1;
  1070  0759  1283               	bcf	status, 5	;RP0=0, select bank0
  1071  075A  1303               	bcf	status, 6	;RP1=0, select bank0
  1072  075B  08A6               	movf	(main@sw3_flag),f
  1073  075C  1D03               	skipz
  1074  075D  2F5F               	goto	u3181
  1075  075E  2F60               	goto	u3180
  1076  075F                     u3181:
  1077  075F  2F65               	goto	l3252
  1078  0760                     u3180:
  1079                           	
  1080  0760                     l3250:	
  1081  0760  01A6               	clrf	(main@sw3_flag)
  1082  0761  1403               	bsf	status,0
  1083  0762  0DA6               	rlf	(main@sw3_flag),f
  1084  0763  2F65               	goto	l3252
  1085                           	
  1086  0764                     l527:	
  1087  0764  2F65               	goto	l3252
  1088                           	line	149
  1089                           	
  1090  0765                     l526:	
  1091                           	line	153
  1092                           	
  1093  0765                     l3252:	
  1094                           ;Master_Internal UART.c: 149: }
  1095                           ;Master_Internal UART.c: 153: internal_uart_write(4);
  1096  0765  3004               	movlw	(04h)
  1097  0766  120A  118A  24D8   	fcall	_internal_uart_write
              120A  118A         
  1098                           	line	154
  1099                           	
  1100  076B                     l3254:	
  1101                           ;Master_Internal UART.c: 154: internal_uart_write(1);
  1102  076B  3001               	movlw	(01h)
  1103  076C  120A  118A  24D8   	fcall	_internal_uart_write
              120A  118A         
  1104                           	line	155
  1105                           	
  1106  0771                     l3256:	
  1107                           ;Master_Internal UART.c: 155: dummy=internal_uart_read();
  1108  0771  120A  118A  24E4   	fcall	_internal_uart_read
              120A  118A         
  1109  0776  00FB               	movwf	(??_main+0)+0
  1110  0777  087B               	movf	(??_main+0)+0,w
  1111  0778  1283               	bcf	status, 5	;RP0=0, select bank0
  1112  0779  1303               	bcf	status, 6	;RP1=0, select bank0
  1113  077A  00AA               	movwf	(_dummy)
  1114                           	line	156
  1115                           	
  1116  077B                     l3258:	
  1117                           ;Master_Internal UART.c: 156: if(dummy==0)
  1118  077B  08AA               	movf	(_dummy),f
  1119  077C  1D03               	skipz
  1120  077D  2F7F               	goto	u3191
  1121  077E  2F80               	goto	u3190
  1122  077F                     u3191:
  1123  077F  2F8D               	goto	l3266
  1124  0780                     u3190:
  1125                           	line	158
  1126                           	
  1127  0780                     l3260:	
  1128                           ;Master_Internal UART.c: 157: {
  1129                           ;Master_Internal UART.c: 158: if(slave_sw1_flag!=0)
  1130  0780  0827               	movf	(main@slave_sw1_flag),w
  1131  0781  1D03               	skipz
  1132  0782  2F84               	goto	u3200
  1133  0783  2F97               	goto	l3270
  1134  0784                     u3200:
  1135                           	line	160
  1136                           	
  1137  0784                     l3262:	
  1138                           ;Master_Internal UART.c: 159: {
  1139                           ;Master_Internal UART.c: 160: slave_sw1_flag=0;
  1140  0784  1003               	clrc
  1141  0785  3000               	movlw	0
  1142  0786  1803               	btfsc	status,0
  1143  0787  3001               	movlw	1
  1144  0788  00A7               	movwf	(main@slave_sw1_flag)
  1145                           	line	161
  1146                           	
  1147  0789                     l3264:	
  1148                           ;Master_Internal UART.c: 161: RA1=!RA1;
  1149  0789  3002               	movlw	1<<((41)&7)
  1150  078A  0685               	xorwf	((41)/8),f
  1151  078B  2F97               	goto	l3270
  1152                           	line	162
  1153                           	
  1154  078C                     l529:	
  1155                           	line	163
  1156                           ;Master_Internal UART.c: 162: }
  1157                           ;Master_Internal UART.c: 163: }
  1158  078C  2F97               	goto	l3270
  1159                           	line	164
  1160                           	
  1161  078D                     l528:	
  1162                           	line	166
  1163                           	
  1164  078D                     l3266:	
  1165                           ;Master_Internal UART.c: 164: else
  1166                           ;Master_Internal UART.c: 165: {
  1167                           ;Master_Internal UART.c: 166: if(slave_sw1_flag==0) slave_sw1_flag=1;
  1168  078D  08A7               	movf	(main@slave_sw1_flag),f
  1169  078E  1D03               	skipz
  1170  078F  2F91               	goto	u3211
  1171  0790  2F92               	goto	u3210
  1172  0791                     u3211:
  1173  0791  2F97               	goto	l3270
  1174  0792                     u3210:
  1175                           	
  1176  0792                     l3268:	
  1177  0792  01A7               	clrf	(main@slave_sw1_flag)
  1178  0793  1403               	bsf	status,0
  1179  0794  0DA7               	rlf	(main@slave_sw1_flag),f
  1180  0795  2F97               	goto	l3270
  1181                           	
  1182  0796                     l531:	
  1183  0796  2F97               	goto	l3270
  1184                           	line	167
  1185                           	
  1186  0797                     l530:	
  1187                           	line	171
  1188                           	
  1189  0797                     l3270:	
  1190                           ;Master_Internal UART.c: 167: }
  1191                           ;Master_Internal UART.c: 171: internal_uart_write(4);
  1192  0797  3004               	movlw	(04h)
  1193  0798  120A  118A  24D8   	fcall	_internal_uart_write
              120A  118A         
  1194                           	line	172
  1195                           	
  1196  079D                     l3272:	
  1197                           ;Master_Internal UART.c: 172: internal_uart_write(2);
  1198  079D  3002               	movlw	(02h)
  1199  079E  120A  118A  24D8   	fcall	_internal_uart_write
              120A  118A         
  1200                           	line	173
  1201                           	
  1202  07A3                     l3274:	
  1203                           ;Master_Internal UART.c: 173: dummy=internal_uart_read();
  1204  07A3  120A  118A  24E4   	fcall	_internal_uart_read
              120A  118A         
  1205  07A8  00FB               	movwf	(??_main+0)+0
  1206  07A9  087B               	movf	(??_main+0)+0,w
  1207  07AA  1283               	bcf	status, 5	;RP0=0, select bank0
  1208  07AB  1303               	bcf	status, 6	;RP1=0, select bank0
  1209  07AC  00AA               	movwf	(_dummy)
  1210                           	line	174
  1211                           	
  1212  07AD                     l3276:	
  1213                           ;Master_Internal UART.c: 174: if(dummy==0)
  1214  07AD  08AA               	movf	(_dummy),f
  1215  07AE  1D03               	skipz
  1216  07AF  2FB1               	goto	u3221
  1217  07B0  2FB2               	goto	u3220
  1218  07B1                     u3221:
  1219  07B1  2FBF               	goto	l3284
  1220  07B2                     u3220:
  1221                           	line	176
  1222                           	
  1223  07B2                     l3278:	
  1224                           ;Master_Internal UART.c: 175: {
  1225                           ;Master_Internal UART.c: 176: if(slave_sw2_flag!=0)
  1226  07B2  0828               	movf	(main@slave_sw2_flag),w
  1227  07B3  1D03               	skipz
  1228  07B4  2FB6               	goto	u3230
  1229  07B5  2FC9               	goto	l3288
  1230  07B6                     u3230:
  1231                           	line	178
  1232                           	
  1233  07B6                     l3280:	
  1234                           ;Master_Internal UART.c: 177: {
  1235                           ;Master_Internal UART.c: 178: slave_sw2_flag=0;
  1236  07B6  1003               	clrc
  1237  07B7  3000               	movlw	0
  1238  07B8  1803               	btfsc	status,0
  1239  07B9  3001               	movlw	1
  1240  07BA  00A8               	movwf	(main@slave_sw2_flag)
  1241                           	line	179
  1242                           	
  1243  07BB                     l3282:	
  1244                           ;Master_Internal UART.c: 179: RA0=!RA0;
  1245  07BB  3001               	movlw	1<<((40)&7)
  1246  07BC  0685               	xorwf	((40)/8),f
  1247  07BD  2FC9               	goto	l3288
  1248                           	line	180
  1249                           	
  1250  07BE                     l533:	
  1251                           	line	181
  1252                           ;Master_Internal UART.c: 180: }
  1253                           ;Master_Internal UART.c: 181: }
  1254  07BE  2FC9               	goto	l3288
  1255                           	line	182
  1256                           	
  1257  07BF                     l532:	
  1258                           	line	184
  1259                           	
  1260  07BF                     l3284:	
  1261                           ;Master_Internal UART.c: 182: else
  1262                           ;Master_Internal UART.c: 183: {
  1263                           ;Master_Internal UART.c: 184: if(slave_sw2_flag==0) slave_sw2_flag=1;
  1264  07BF  08A8               	movf	(main@slave_sw2_flag),f
  1265  07C0  1D03               	skipz
  1266  07C1  2FC3               	goto	u3241
  1267  07C2  2FC4               	goto	u3240
  1268  07C3                     u3241:
  1269  07C3  2FC9               	goto	l3288
  1270  07C4                     u3240:
  1271                           	
  1272  07C4                     l3286:	
  1273  07C4  01A8               	clrf	(main@slave_sw2_flag)
  1274  07C5  1403               	bsf	status,0
  1275  07C6  0DA8               	rlf	(main@slave_sw2_flag),f
  1276  07C7  2FC9               	goto	l3288
  1277                           	
  1278  07C8                     l535:	
  1279  07C8  2FC9               	goto	l3288
  1280                           	line	185
  1281                           	
  1282  07C9                     l534:	
  1283                           	line	189
  1284                           	
  1285  07C9                     l3288:	
  1286                           ;Master_Internal UART.c: 185: }
  1287                           ;Master_Internal UART.c: 189: internal_uart_write(4);
  1288  07C9  3004               	movlw	(04h)
  1289  07CA  120A  118A  24D8   	fcall	_internal_uart_write
              120A  118A         
  1290                           	line	190
  1291                           	
  1292  07CF                     l3290:	
  1293                           ;Master_Internal UART.c: 190: internal_uart_write(3);
  1294  07CF  3003               	movlw	(03h)
  1295  07D0  120A  118A  24D8   	fcall	_internal_uart_write
              120A  118A         
  1296                           	line	191
  1297                           	
  1298  07D5                     l3292:	
  1299                           ;Master_Internal UART.c: 191: dummy=internal_uart_read();
  1300  07D5  120A  118A  24E4   	fcall	_internal_uart_read
              120A  118A         
  1301  07DA  00FB               	movwf	(??_main+0)+0
  1302  07DB  087B               	movf	(??_main+0)+0,w
  1303  07DC  1283               	bcf	status, 5	;RP0=0, select bank0
  1304  07DD  1303               	bcf	status, 6	;RP1=0, select bank0
  1305  07DE  00AA               	movwf	(_dummy)
  1306                           	line	192
  1307                           	
  1308  07DF                     l3294:	
  1309                           ;Master_Internal UART.c: 192: if(dummy==0)
  1310  07DF  08AA               	movf	(_dummy),f
  1311  07E0  1D03               	skipz
  1312  07E1  2FE3               	goto	u3251
  1313  07E2  2FE4               	goto	u3250
  1314  07E3                     u3251:
  1315  07E3  2FF1               	goto	l3302
  1316  07E4                     u3250:
  1317                           	line	194
  1318                           	
  1319  07E4                     l3296:	
  1320                           ;Master_Internal UART.c: 193: {
  1321                           ;Master_Internal UART.c: 194: if(slave_sw3_flag!=0)
  1322  07E4  0829               	movf	(main@slave_sw3_flag),w
  1323  07E5  1D03               	skipz
  1324  07E6  2FE8               	goto	u3260
  1325  07E7  2EE9               	goto	l3210
  1326  07E8                     u3260:
  1327                           	line	196
  1328                           	
  1329  07E8                     l3298:	
  1330                           ;Master_Internal UART.c: 195: {
  1331                           ;Master_Internal UART.c: 196: slave_sw3_flag=0;
  1332  07E8  1003               	clrc
  1333  07E9  3000               	movlw	0
  1334  07EA  1803               	btfsc	status,0
  1335  07EB  3001               	movlw	1
  1336  07EC  00A9               	movwf	(main@slave_sw3_flag)
  1337                           	line	197
  1338                           	
  1339  07ED                     l3300:	
  1340                           ;Master_Internal UART.c: 197: RA5=!RA5;
  1341  07ED  3020               	movlw	1<<((45)&7)
  1342  07EE  0685               	xorwf	((45)/8),f
  1343  07EF  2EE9               	goto	l3210
  1344                           	line	198
  1345                           	
  1346  07F0                     l537:	
  1347                           	line	199
  1348                           ;Master_Internal UART.c: 198: }
  1349                           ;Master_Internal UART.c: 199: }
  1350  07F0  2EE9               	goto	l3210
  1351                           	line	200
  1352                           	
  1353  07F1                     l536:	
  1354                           	line	202
  1355                           	
  1356  07F1                     l3302:	
  1357                           ;Master_Internal UART.c: 200: else
  1358                           ;Master_Internal UART.c: 201: {
  1359                           ;Master_Internal UART.c: 202: if(slave_sw3_flag==0) slave_sw3_flag=1;
  1360  07F1  08A9               	movf	(main@slave_sw3_flag),f
  1361  07F2  1D03               	skipz
  1362  07F3  2FF5               	goto	u3271
  1363  07F4  2FF6               	goto	u3270
  1364  07F5                     u3271:
  1365  07F5  2EE9               	goto	l3210
  1366  07F6                     u3270:
  1367                           	
  1368  07F6                     l3304:	
  1369  07F6  01A9               	clrf	(main@slave_sw3_flag)
  1370  07F7  1403               	bsf	status,0
  1371  07F8  0DA9               	rlf	(main@slave_sw3_flag),f
  1372  07F9  2EE9               	goto	l3210
  1373                           	
  1374  07FA                     l539:	
  1375  07FA  2EE9               	goto	l3210
  1376                           	line	203
  1377                           	
  1378  07FB                     l538:	
  1379  07FB  2EE9               	goto	l3210
  1380                           	line	204
  1381                           	
  1382  07FC                     l540:	
  1383                           	line	102
  1384  07FC  2EE9               	goto	l3210
  1385                           	
  1386  07FD                     l541:	
  1387                           	line	205
  1388                           	
  1389  07FD                     l542:	
  1390                           	global	start
  1391  07FD  120A  118A  2800   	ljmp	start
  1392                           	opt stack 0
  1393                           GLOBAL	__end_of_main
  1394  0800                     	__end_of_main:
  1395 ;; =============== function _main ends ============
  1396                           
  1397                           	signat	_main,88
  1398                           	global	_send_string
  1399                           psect	text265,local,class=CODE,delta=2
  1400                           global __ptext265
  1401  056E                     __ptext265:
  1402                           
  1403 ;; *************** function _send_string *****************
  1404 ;; Defined at:
  1405 ;;		line 304 in file "Master_Internal UART.c"
  1406 ;; Parameters:    Size  Location     Type
  1407 ;;  s               1    wreg     PTR const unsigned char 
  1408 ;;		 -> STR_2(16), STR_1(12), 
  1409 ;; Auto vars:     Size  Location     Type
  1410 ;;  s               1   10[COMMON] PTR const unsigned char 
  1411 ;;		 -> STR_2(16), STR_1(12), 
  1412 ;; Return value:  Size  Location     Type
  1413 ;;		None               void
  1414 ;; Registers used:
  1415 ;;		wreg, fsr0l, fsr0h, status,2, status,0, pclath, cstack
  1416 ;; Tracked objects:
  1417 ;;		On entry : 0/0
  1418 ;;		On exit  : 0/0
  1419 ;;		Unchanged: 0/0
  1420 ;; Data sizes:     COMMON   BANK0   BANK1   BANK3   BANK2
  1421 ;;      Params:         0       0       0       0       0
  1422 ;;      Locals:         1       0       0       0       0
  1423 ;;      Temps:          1       0       0       0       0
  1424 ;;      Totals:         2       0       0       0       0
  1425 ;;Total ram usage:        2 bytes
  1426 ;; Hardware stack levels used:    1
  1427 ;; Hardware stack levels required when called:    2
  1428 ;; This function calls:
  1429 ;;		_send_char
  1430 ;; This function is called by:
  1431 ;;		_main
  1432 ;; This function uses a non-reentrant model
  1433 ;;
  1434                           psect	text265
  1435                           	file	"Master_Internal UART.c"
  1436                           	line	304
  1437                           	global	__size_of_send_string
  1438  0026                     	__size_of_send_string	equ	__end_of_send_string-_send_string
  1439                           	
  1440  056E                     _send_string:	
  1441                           	opt	stack 5
  1442                           ; Regs used in _send_string: [wreg-fsr0h+status,2+status,0+pclath+cstack]
  1443                           ;send_string@s stored from wreg
  1444  056E  00FA               	movwf	(send_string@s)
  1445                           	line	305
  1446                           	
  1447  056F                     l3126:	
  1448                           ;Master_Internal UART.c: 305: while (s && *s)send_char (*s++);
  1449  056F  2D81               	goto	l3132
  1450                           	
  1451  0570                     l587:	
  1452                           	
  1453  0570                     l3128:	
  1454  0570  087A               	movf	(send_string@s),w
  1455  0571  0084               	movwf	fsr0
  1456  0572  120A  118A  2003   	fcall	stringdir
              120A  118A         
  1457  0577  120A  118A  2549   	fcall	_send_char
              120A  118A         
  1458                           	
  1459  057C                     l3130:	
  1460  057C  3001               	movlw	(01h)
  1461  057D  00F9               	movwf	(??_send_string+0)+0
  1462  057E  0879               	movf	(??_send_string+0)+0,w
  1463  057F  07FA               	addwf	(send_string@s),f
  1464  0580  2D81               	goto	l3132
  1465                           	
  1466  0581                     l586:	
  1467                           	
  1468  0581                     l3132:	
  1469  0581  087A               	movf	(send_string@s),w
  1470  0582  1D03               	skipz
  1471  0583  2D85               	goto	u3080
  1472  0584  2D93               	goto	l591
  1473  0585                     u3080:
  1474                           	
  1475  0585                     l3134:	
  1476  0585  087A               	movf	(send_string@s),w
  1477  0586  0084               	movwf	fsr0
  1478  0587  120A  118A  2003   	fcall	stringdir
              120A  118A         
  1479  058C  3800               	iorlw	0
  1480  058D  1D03               	skipz
  1481  058E  2D90               	goto	u3091
  1482  058F  2D91               	goto	u3090
  1483  0590                     u3091:
  1484  0590  2D70               	goto	l3128
  1485  0591                     u3090:
  1486  0591  2D93               	goto	l591
  1487                           	
  1488  0592                     l589:	
  1489  0592  2D93               	goto	l591
  1490                           	
  1491  0593                     l590:	
  1492                           	line	306
  1493                           	
  1494  0593                     l591:	
  1495  0593  0008               	return
  1496                           	opt stack 0
  1497                           GLOBAL	__end_of_send_string
  1498  0594                     	__end_of_send_string:
  1499 ;; =============== function _send_string ends ============
  1500                           
  1501                           	signat	_send_string,4216
  1502                           	global	_lcd_goto
  1503                           psect	text266,local,class=CODE,delta=2
  1504                           global __ptext266
  1505  0507                     __ptext266:
  1506                           
  1507 ;; *************** function _lcd_goto *****************
  1508 ;; Defined at:
  1509 ;;		line 309 in file "Master_Internal UART.c"
  1510 ;; Parameters:    Size  Location     Type
  1511 ;;  data            1    wreg     unsigned char 
  1512 ;; Auto vars:     Size  Location     Type
  1513 ;;  data            1   10[COMMON] unsigned char 
  1514 ;; Return value:  Size  Location     Type
  1515 ;;		None               void
  1516 ;; Registers used:
  1517 ;;		wreg, status,2, status,0, pclath, cstack
  1518 ;; Tracked objects:
  1519 ;;		On entry : 0/0
  1520 ;;		On exit  : 0/0
  1521 ;;		Unchanged: 0/0
  1522 ;; Data sizes:     COMMON   BANK0   BANK1   BANK3   BANK2
  1523 ;;      Params:         0       0       0       0       0
  1524 ;;      Locals:         1       0       0       0       0
  1525 ;;      Temps:          1       0       0       0       0
  1526 ;;      Totals:         2       0       0       0       0
  1527 ;;Total ram usage:        2 bytes
  1528 ;; Hardware stack levels used:    1
  1529 ;; Hardware stack levels required when called:    2
  1530 ;; This function calls:
  1531 ;;		_send_config
  1532 ;; This function is called by:
  1533 ;;		_main
  1534 ;; This function uses a non-reentrant model
  1535 ;;
  1536                           psect	text266
  1537                           	file	"Master_Internal UART.c"
  1538                           	line	309
  1539                           	global	__size_of_lcd_goto
  1540  001D                     	__size_of_lcd_goto	equ	__end_of_lcd_goto-_lcd_goto
  1541                           	
  1542  0507                     _lcd_goto:	
  1543                           	opt	stack 5
  1544                           ; Regs used in _lcd_goto: [wreg+status,2+status,0+pclath+cstack]
  1545                           ;lcd_goto@data stored from wreg
  1546  0507  00FA               	movwf	(lcd_goto@data)
  1547                           	line	310
  1548                           	
  1549  0508                     l3118:	
  1550                           ;Master_Internal UART.c: 310: if(data<16)
  1551  0508  3010               	movlw	(010h)
  1552  0509  027A               	subwf	(lcd_goto@data),w
  1553  050A  1803               	skipnc
  1554  050B  2D0D               	goto	u3071
  1555  050C  2D0E               	goto	u3070
  1556  050D                     u3071:
  1557  050D  2D16               	goto	l3122
  1558  050E                     u3070:
  1559                           	line	312
  1560                           	
  1561  050E                     l3120:	
  1562                           ;Master_Internal UART.c: 311: {
  1563                           ;Master_Internal UART.c: 312: send_config(0x80+data);
  1564  050E  087A               	movf	(lcd_goto@data),w
  1565  050F  3E80               	addlw	080h
  1566  0510  120A  118A  2524   	fcall	_send_config
              120A  118A         
  1567                           	line	313
  1568                           ;Master_Internal UART.c: 313: }
  1569  0515  2D23               	goto	l596
  1570                           	line	314
  1571                           	
  1572  0516                     l594:	
  1573                           	line	316
  1574                           	
  1575  0516                     l3122:	
  1576                           ;Master_Internal UART.c: 314: else
  1577                           ;Master_Internal UART.c: 315: {
  1578                           ;Master_Internal UART.c: 316: data=data-20;
  1579  0516  087A               	movf	(lcd_goto@data),w
  1580  0517  3EEC               	addlw	0ECh
  1581  0518  00F9               	movwf	(??_lcd_goto+0)+0
  1582  0519  0879               	movf	(??_lcd_goto+0)+0,w
  1583  051A  00FA               	movwf	(lcd_goto@data)
  1584                           	line	317
  1585                           	
  1586  051B                     l3124:	
  1587                           ;Master_Internal UART.c: 317: send_config(0xc0+data);
  1588  051B  087A               	movf	(lcd_goto@data),w
  1589  051C  3EC0               	addlw	0C0h
  1590  051D  120A  118A  2524   	fcall	_send_config
              120A  118A         
  1591  0522  2D23               	goto	l596
  1592                           	line	318
  1593                           	
  1594  0523                     l595:	
  1595                           	line	319
  1596                           	
  1597  0523                     l596:	
  1598  0523  0008               	return
  1599                           	opt stack 0
  1600                           GLOBAL	__end_of_lcd_goto
  1601  0524                     	__end_of_lcd_goto:
  1602 ;; =============== function _lcd_goto ends ============
  1603                           
  1604                           	signat	_lcd_goto,4216
  1605                           	global	_lcd_clr
  1606                           psect	text267,local,class=CODE,delta=2
  1607                           global __ptext267
  1608  04F3                     __ptext267:
  1609                           
  1610 ;; *************** function _lcd_clr *****************
  1611 ;; Defined at:
  1612 ;;		line 236 in file "Master_Internal UART.c"
  1613 ;; Parameters:    Size  Location     Type
  1614 ;;		None
  1615 ;; Auto vars:     Size  Location     Type
  1616 ;;		None
  1617 ;; Return value:  Size  Location     Type
  1618 ;;		None               void
  1619 ;; Registers used:
  1620 ;;		wreg, status,2, status,0, pclath, cstack
  1621 ;; Tracked objects:
  1622 ;;		On entry : 0/0
  1623 ;;		On exit  : 0/0
  1624 ;;		Unchanged: 0/0
  1625 ;; Data sizes:     COMMON   BANK0   BANK1   BANK3   BANK2
  1626 ;;      Params:         0       0       0       0       0
  1627 ;;      Locals:         0       0       0       0       0
  1628 ;;      Temps:          0       0       0       0       0
  1629 ;;      Totals:         0       0       0       0       0
  1630 ;;Total ram usage:        0 bytes
  1631 ;; Hardware stack levels used:    1
  1632 ;; Hardware stack levels required when called:    2
  1633 ;; This function calls:
  1634 ;;		_send_config
  1635 ;;		_delay
  1636 ;; This function is called by:
  1637 ;;		_main
  1638 ;; This function uses a non-reentrant model
  1639 ;;
  1640                           psect	text267
  1641                           	file	"Master_Internal UART.c"
  1642                           	line	236
  1643                           	global	__size_of_lcd_clr
  1644  0014                     	__size_of_lcd_clr	equ	__end_of_lcd_clr-_lcd_clr
  1645                           	
  1646  04F3                     _lcd_clr:	
  1647                           	opt	stack 5
  1648                           ; Regs used in _lcd_clr: [wreg+status,2+status,0+pclath+cstack]
  1649                           	line	237
  1650                           	
  1651  04F3                     l3116:	
  1652                           ;Master_Internal UART.c: 237: send_config(0x01);
  1653  04F3  3001               	movlw	(01h)
  1654  04F4  120A  118A  2524   	fcall	_send_config
              120A  118A         
  1655                           	line	238
  1656                           ;Master_Internal UART.c: 238: delay(600);
  1657  04F9  3000               	movlw	0
  1658  04FA  00F3               	movwf	(?_delay+3)
  1659  04FB  3000               	movlw	0
  1660  04FC  00F2               	movwf	(?_delay+2)
  1661  04FD  3002               	movlw	02h
  1662  04FE  00F1               	movwf	(?_delay+1)
  1663  04FF  3058               	movlw	058h
  1664  0500  00F0               	movwf	(?_delay)
  1665                           
  1666  0501  120A  118A  2594   	fcall	_delay
              120A  118A         
  1667                           	line	239
  1668                           	
  1669  0506                     l556:	
  1670  0506  0008               	return
  1671                           	opt stack 0
  1672                           GLOBAL	__end_of_lcd_clr
  1673  0507                     	__end_of_lcd_clr:
  1674 ;; =============== function _lcd_clr ends ============
  1675                           
  1676                           	signat	_lcd_clr,88
  1677                           	global	_send_char
  1678                           psect	text268,local,class=CODE,delta=2
  1679                           global __ptext268
  1680  0549                     __ptext268:
  1681                           
  1682 ;; *************** function _send_char *****************
  1683 ;; Defined at:
  1684 ;;		line 226 in file "Master_Internal UART.c"
  1685 ;; Parameters:    Size  Location     Type
  1686 ;;  data            1    wreg     unsigned char 
  1687 ;; Auto vars:     Size  Location     Type
  1688 ;;  data            1    8[COMMON] unsigned char 
  1689 ;; Return value:  Size  Location     Type
  1690 ;;		None               void
  1691 ;; Registers used:
  1692 ;;		wreg, status,2, status,0, pclath, cstack
  1693 ;; Tracked objects:
  1694 ;;		On entry : 0/0
  1695 ;;		On exit  : 0/0
  1696 ;;		Unchanged: 0/0
  1697 ;; Data sizes:     COMMON   BANK0   BANK1   BANK3   BANK2
  1698 ;;      Params:         0       0       0       0       0
  1699 ;;      Locals:         1       0       0       0       0
  1700 ;;      Temps:          0       0       0       0       0
  1701 ;;      Totals:         1       0       0       0       0
  1702 ;;Total ram usage:        1 bytes
  1703 ;; Hardware stack levels used:    1
  1704 ;; Hardware stack levels required when called:    1
  1705 ;; This function calls:
  1706 ;;		_delay
  1707 ;; This function is called by:
  1708 ;;		_send_string
  1709 ;; This function uses a non-reentrant model
  1710 ;;
  1711                           psect	text268
  1712                           	file	"Master_Internal UART.c"
  1713                           	line	226
  1714                           	global	__size_of_send_char
  1715  0025                     	__size_of_send_char	equ	__end_of_send_char-_send_char
  1716                           	
  1717  0549                     _send_char:	
  1718                           	opt	stack 5
  1719                           ; Regs used in _send_char: [wreg+status,2+status,0+pclath+cstack]
  1720                           ;send_char@data stored from wreg
  1721  0549  00F8               	movwf	(send_char@data)
  1722                           	line	227
  1723                           	
  1724  054A                     l3104:	
  1725                           ;Master_Internal UART.c: 227: RC4=1;
  1726  054A  1283               	bcf	status, 5	;RP0=0, select bank0
  1727  054B  1303               	bcf	status, 6	;RP1=0, select bank0
  1728  054C  1607               	bsf	(60/8),(60)&7
  1729                           	line	228
  1730                           	
  1731  054D                     l3106:	
  1732                           ;Master_Internal UART.c: 228: PORTB=data;
  1733  054D  0878               	movf	(send_char@data),w
  1734  054E  0086               	movwf	(6)	;volatile
  1735                           	line	229
  1736                           	
  1737  054F                     l3108:	
  1738                           ;Master_Internal UART.c: 229: RC5=1;
  1739  054F  1687               	bsf	(61/8),(61)&7
  1740                           	line	230
  1741                           	
  1742  0550                     l3110:	
  1743                           ;Master_Internal UART.c: 230: delay(50);
  1744  0550  3000               	movlw	0
  1745  0551  00F3               	movwf	(?_delay+3)
  1746  0552  3000               	movlw	0
  1747  0553  00F2               	movwf	(?_delay+2)
  1748  0554  3000               	movlw	0
  1749  0555  00F1               	movwf	(?_delay+1)
  1750  0556  3032               	movlw	032h
  1751  0557  00F0               	movwf	(?_delay)
  1752                           
  1753  0558  120A  118A  2594   	fcall	_delay
              120A  118A         
  1754                           	line	231
  1755                           	
  1756  055D                     l3112:	
  1757                           ;Master_Internal UART.c: 231: RC5=0;
  1758  055D  1283               	bcf	status, 5	;RP0=0, select bank0
  1759  055E  1303               	bcf	status, 6	;RP1=0, select bank0
  1760  055F  1287               	bcf	(61/8),(61)&7
  1761                           	line	232
  1762                           	
  1763  0560                     l3114:	
  1764                           ;Master_Internal UART.c: 232: delay(50);
  1765  0560  3000               	movlw	0
  1766  0561  00F3               	movwf	(?_delay+3)
  1767  0562  3000               	movlw	0
  1768  0563  00F2               	movwf	(?_delay+2)
  1769  0564  3000               	movlw	0
  1770  0565  00F1               	movwf	(?_delay+1)
  1771  0566  3032               	movlw	032h
  1772  0567  00F0               	movwf	(?_delay)
  1773                           
  1774  0568  120A  118A  2594   	fcall	_delay
              120A  118A         
  1775                           	line	233
  1776                           	
  1777  056D                     l553:	
  1778  056D  0008               	return
  1779                           	opt stack 0
  1780                           GLOBAL	__end_of_send_char
  1781  056E                     	__end_of_send_char:
  1782 ;; =============== function _send_char ends ============
  1783                           
  1784                           	signat	_send_char,4216
  1785                           	global	_onoff_slave_buzzer
  1786                           psect	text269,local,class=CODE,delta=2
  1787                           global __ptext269
  1788  062E                     __ptext269:
  1789                           
  1790 ;; *************** function _onoff_slave_buzzer *****************
  1791 ;; Defined at:
  1792 ;;		line 274 in file "Master_Internal UART.c"
  1793 ;; Parameters:    Size  Location     Type
  1794 ;;  c               1    wreg     unsigned char 
  1795 ;; Auto vars:     Size  Location     Type
  1796 ;;  c               1    3[COMMON] unsigned char 
  1797 ;; Return value:  Size  Location     Type
  1798 ;;		None               void
  1799 ;; Registers used:
  1800 ;;		wreg, status,2, status,0, pclath, cstack
  1801 ;; Tracked objects:
  1802 ;;		On entry : 0/0
  1803 ;;		On exit  : 0/0
  1804 ;;		Unchanged: 0/0
  1805 ;; Data sizes:     COMMON   BANK0   BANK1   BANK3   BANK2
  1806 ;;      Params:         0       0       0       0       0
  1807 ;;      Locals:         1       0       0       0       0
  1808 ;;      Temps:          1       0       0       0       0
  1809 ;;      Totals:         2       0       0       0       0
  1810 ;;Total ram usage:        2 bytes
  1811 ;; Hardware stack levels used:    1
  1812 ;; Hardware stack levels required when called:    1
  1813 ;; This function calls:
  1814 ;;		_internal_uart_write
  1815 ;;		_internal_uart_read
  1816 ;; This function is called by:
  1817 ;;		_main
  1818 ;; This function uses a non-reentrant model
  1819 ;;
  1820                           psect	text269
  1821                           	file	"Master_Internal UART.c"
  1822                           	line	274
  1823                           	global	__size_of_onoff_slave_buzzer
  1824  0035                     	__size_of_onoff_slave_buzzer	equ	__end_of_onoff_slave_buzzer-_onoff_slave_buzzer
  1825                           	
  1826  062E                     _onoff_slave_buzzer:	
  1827                           	opt	stack 6
  1828                           ; Regs used in _onoff_slave_buzzer: [wreg+status,2+status,0+pclath+cstack]
  1829                           ;onoff_slave_buzzer@c stored from wreg
  1830  062E  00F3               	movwf	(onoff_slave_buzzer@c)
  1831                           	line	275
  1832                           	
  1833  062F                     l3094:	
  1834                           ;Master_Internal UART.c: 275: if (c==0)
  1835  062F  08F3               	movf	(onoff_slave_buzzer@c),f
  1836  0630  1D03               	skipz
  1837  0631  2E33               	goto	u3061
  1838  0632  2E34               	goto	u3060
  1839  0633                     u3061:
  1840  0633  2E4B               	goto	l3100
  1841  0634                     u3060:
  1842                           	line	277
  1843                           	
  1844  0634                     l3096:	
  1845                           ;Master_Internal UART.c: 276: {
  1846                           ;Master_Internal UART.c: 277: internal_uart_write(3);
  1847  0634  3003               	movlw	(03h)
  1848  0635  120A  118A  24D8   	fcall	_internal_uart_write
              120A  118A         
  1849                           	line	278
  1850                           ;Master_Internal UART.c: 278: internal_uart_write(0);
  1851  063A  3000               	movlw	(0)
  1852  063B  120A  118A  24D8   	fcall	_internal_uart_write
              120A  118A         
  1853                           	line	279
  1854                           	
  1855  0640                     l3098:	
  1856                           ;Master_Internal UART.c: 279: dummy=internal_uart_read();
  1857  0640  120A  118A  24E4   	fcall	_internal_uart_read
              120A  118A         
  1858  0645  00F2               	movwf	(??_onoff_slave_buzzer+0)+0
  1859  0646  0872               	movf	(??_onoff_slave_buzzer+0)+0,w
  1860  0647  1283               	bcf	status, 5	;RP0=0, select bank0
  1861  0648  1303               	bcf	status, 6	;RP1=0, select bank0
  1862  0649  00AA               	movwf	(_dummy)
  1863                           	line	280
  1864                           ;Master_Internal UART.c: 280: }
  1865  064A  2E62               	goto	l571
  1866                           	line	281
  1867                           	
  1868  064B                     l569:	
  1869                           	line	283
  1870                           	
  1871  064B                     l3100:	
  1872                           ;Master_Internal UART.c: 281: else
  1873                           ;Master_Internal UART.c: 282: {
  1874                           ;Master_Internal UART.c: 283: internal_uart_write(3);
  1875  064B  3003               	movlw	(03h)
  1876  064C  120A  118A  24D8   	fcall	_internal_uart_write
              120A  118A         
  1877                           	line	284
  1878                           ;Master_Internal UART.c: 284: internal_uart_write(1);
  1879  0651  3001               	movlw	(01h)
  1880  0652  120A  118A  24D8   	fcall	_internal_uart_write
              120A  118A         
  1881                           	line	285
  1882                           	
  1883  0657                     l3102:	
  1884                           ;Master_Internal UART.c: 285: dummy=internal_uart_read();
  1885  0657  120A  118A  24E4   	fcall	_internal_uart_read
              120A  118A         
  1886  065C  00F2               	movwf	(??_onoff_slave_buzzer+0)+0
  1887  065D  0872               	movf	(??_onoff_slave_buzzer+0)+0,w
  1888  065E  1283               	bcf	status, 5	;RP0=0, select bank0
  1889  065F  1303               	bcf	status, 6	;RP1=0, select bank0
  1890  0660  00AA               	movwf	(_dummy)
  1891  0661  2E62               	goto	l571
  1892                           	line	286
  1893                           	
  1894  0662                     l570:	
  1895                           	line	287
  1896                           	
  1897  0662                     l571:	
  1898  0662  0008               	return
  1899                           	opt stack 0
  1900                           GLOBAL	__end_of_onoff_slave_buzzer
  1901  0663                     	__end_of_onoff_slave_buzzer:
  1902 ;; =============== function _onoff_slave_buzzer ends ============
  1903                           
  1904                           	signat	_onoff_slave_buzzer,4216
  1905                           	global	_onoff_slave_led2
  1906                           psect	text270,local,class=CODE,delta=2
  1907                           global __ptext270
  1908  05F9                     __ptext270:
  1909                           
  1910 ;; *************** function _onoff_slave_led2 *****************
  1911 ;; Defined at:
  1912 ;;		line 258 in file "Master_Internal UART.c"
  1913 ;; Parameters:    Size  Location     Type
  1914 ;;  b               1    wreg     unsigned char 
  1915 ;; Auto vars:     Size  Location     Type
  1916 ;;  b               1    3[COMMON] unsigned char 
  1917 ;; Return value:  Size  Location     Type
  1918 ;;		None               void
  1919 ;; Registers used:
  1920 ;;		wreg, status,2, status,0, pclath, cstack
  1921 ;; Tracked objects:
  1922 ;;		On entry : 0/0
  1923 ;;		On exit  : 0/0
  1924 ;;		Unchanged: 0/0
  1925 ;; Data sizes:     COMMON   BANK0   BANK1   BANK3   BANK2
  1926 ;;      Params:         0       0       0       0       0
  1927 ;;      Locals:         1       0       0       0       0
  1928 ;;      Temps:          1       0       0       0       0
  1929 ;;      Totals:         2       0       0       0       0
  1930 ;;Total ram usage:        2 bytes
  1931 ;; Hardware stack levels used:    1
  1932 ;; Hardware stack levels required when called:    1
  1933 ;; This function calls:
  1934 ;;		_internal_uart_write
  1935 ;;		_internal_uart_read
  1936 ;; This function is called by:
  1937 ;;		_main
  1938 ;; This function uses a non-reentrant model
  1939 ;;
  1940                           psect	text270
  1941                           	file	"Master_Internal UART.c"
  1942                           	line	258
  1943                           	global	__size_of_onoff_slave_led2
  1944  0035                     	__size_of_onoff_slave_led2	equ	__end_of_onoff_slave_led2-_onoff_slave_led2
  1945                           	
  1946  05F9                     _onoff_slave_led2:	
  1947                           	opt	stack 6
  1948                           ; Regs used in _onoff_slave_led2: [wreg+status,2+status,0+pclath+cstack]
  1949                           ;onoff_slave_led2@b stored from wreg
  1950  05F9  00F3               	movwf	(onoff_slave_led2@b)
  1951                           	line	259
  1952                           	
  1953  05FA                     l3084:	
  1954                           ;Master_Internal UART.c: 259: if (b==0)
  1955  05FA  08F3               	movf	(onoff_slave_led2@b),f
  1956  05FB  1D03               	skipz
  1957  05FC  2DFE               	goto	u3051
  1958  05FD  2DFF               	goto	u3050
  1959  05FE                     u3051:
  1960  05FE  2E16               	goto	l3090
  1961  05FF                     u3050:
  1962                           	line	261
  1963                           	
  1964  05FF                     l3086:	
  1965                           ;Master_Internal UART.c: 260: {
  1966                           ;Master_Internal UART.c: 261: internal_uart_write(2);
  1967  05FF  3002               	movlw	(02h)
  1968  0600  120A  118A  24D8   	fcall	_internal_uart_write
              120A  118A         
  1969                           	line	262
  1970                           ;Master_Internal UART.c: 262: internal_uart_write(0);
  1971  0605  3000               	movlw	(0)
  1972  0606  120A  118A  24D8   	fcall	_internal_uart_write
              120A  118A         
  1973                           	line	263
  1974                           	
  1975  060B                     l3088:	
  1976                           ;Master_Internal UART.c: 263: dummy=internal_uart_read();
  1977  060B  120A  118A  24E4   	fcall	_internal_uart_read
              120A  118A         
  1978  0610  00F2               	movwf	(??_onoff_slave_led2+0)+0
  1979  0611  0872               	movf	(??_onoff_slave_led2+0)+0,w
  1980  0612  1283               	bcf	status, 5	;RP0=0, select bank0
  1981  0613  1303               	bcf	status, 6	;RP1=0, select bank0
  1982  0614  00AA               	movwf	(_dummy)
  1983                           	line	264
  1984                           ;Master_Internal UART.c: 264: }
  1985  0615  2E2D               	goto	l566
  1986                           	line	265
  1987                           	
  1988  0616                     l564:	
  1989                           	line	267
  1990                           	
  1991  0616                     l3090:	
  1992                           ;Master_Internal UART.c: 265: else
  1993                           ;Master_Internal UART.c: 266: {
  1994                           ;Master_Internal UART.c: 267: internal_uart_write(2);
  1995  0616  3002               	movlw	(02h)
  1996  0617  120A  118A  24D8   	fcall	_internal_uart_write
              120A  118A         
  1997                           	line	268
  1998                           ;Master_Internal UART.c: 268: internal_uart_write(1);
  1999  061C  3001               	movlw	(01h)
  2000  061D  120A  118A  24D8   	fcall	_internal_uart_write
              120A  118A         
  2001                           	line	269
  2002                           	
  2003  0622                     l3092:	
  2004                           ;Master_Internal UART.c: 269: dummy=internal_uart_read();
  2005  0622  120A  118A  24E4   	fcall	_internal_uart_read
              120A  118A         
  2006  0627  00F2               	movwf	(??_onoff_slave_led2+0)+0
  2007  0628  0872               	movf	(??_onoff_slave_led2+0)+0,w
  2008  0629  1283               	bcf	status, 5	;RP0=0, select bank0
  2009  062A  1303               	bcf	status, 6	;RP1=0, select bank0
  2010  062B  00AA               	movwf	(_dummy)
  2011  062C  2E2D               	goto	l566
  2012                           	line	270
  2013                           	
  2014  062D                     l565:	
  2015                           	line	271
  2016                           	
  2017  062D                     l566:	
  2018  062D  0008               	return
  2019                           	opt stack 0
  2020                           GLOBAL	__end_of_onoff_slave_led2
  2021  062E                     	__end_of_onoff_slave_led2:
  2022 ;; =============== function _onoff_slave_led2 ends ============
  2023                           
  2024                           	signat	_onoff_slave_led2,4216
  2025                           	global	_onoff_slave_led1
  2026                           psect	text271,local,class=CODE,delta=2
  2027                           global __ptext271
  2028  05C4                     __ptext271:
  2029                           
  2030 ;; *************** function _onoff_slave_led1 *****************
  2031 ;; Defined at:
  2032 ;;		line 242 in file "Master_Internal UART.c"
  2033 ;; Parameters:    Size  Location     Type
  2034 ;;  a               1    wreg     unsigned char 
  2035 ;; Auto vars:     Size  Location     Type
  2036 ;;  a               1    3[COMMON] unsigned char 
  2037 ;; Return value:  Size  Location     Type
  2038 ;;		None               void
  2039 ;; Registers used:
  2040 ;;		wreg, status,2, status,0, pclath, cstack
  2041 ;; Tracked objects:
  2042 ;;		On entry : 0/0
  2043 ;;		On exit  : 0/0
  2044 ;;		Unchanged: 0/0
  2045 ;; Data sizes:     COMMON   BANK0   BANK1   BANK3   BANK2
  2046 ;;      Params:         0       0       0       0       0
  2047 ;;      Locals:         1       0       0       0       0
  2048 ;;      Temps:          1       0       0       0       0
  2049 ;;      Totals:         2       0       0       0       0
  2050 ;;Total ram usage:        2 bytes
  2051 ;; Hardware stack levels used:    1
  2052 ;; Hardware stack levels required when called:    1
  2053 ;; This function calls:
  2054 ;;		_internal_uart_write
  2055 ;;		_internal_uart_read
  2056 ;; This function is called by:
  2057 ;;		_main
  2058 ;; This function uses a non-reentrant model
  2059 ;;
  2060                           psect	text271
  2061                           	file	"Master_Internal UART.c"
  2062                           	line	242
  2063                           	global	__size_of_onoff_slave_led1
  2064  0035                     	__size_of_onoff_slave_led1	equ	__end_of_onoff_slave_led1-_onoff_slave_led1
  2065                           	
  2066  05C4                     _onoff_slave_led1:	
  2067                           	opt	stack 6
  2068                           ; Regs used in _onoff_slave_led1: [wreg+status,2+status,0+pclath+cstack]
  2069                           ;onoff_slave_led1@a stored from wreg
  2070  05C4  00F3               	movwf	(onoff_slave_led1@a)
  2071                           	line	243
  2072                           	
  2073  05C5                     l3074:	
  2074                           ;Master_Internal UART.c: 243: if (a==0)
  2075  05C5  08F3               	movf	(onoff_slave_led1@a),f
  2076  05C6  1D03               	skipz
  2077  05C7  2DC9               	goto	u3041
  2078  05C8  2DCA               	goto	u3040
  2079  05C9                     u3041:
  2080  05C9  2DE1               	goto	l3080
  2081  05CA                     u3040:
  2082                           	line	245
  2083                           	
  2084  05CA                     l3076:	
  2085                           ;Master_Internal UART.c: 244: {
  2086                           ;Master_Internal UART.c: 245: internal_uart_write(1);
  2087  05CA  3001               	movlw	(01h)
  2088  05CB  120A  118A  24D8   	fcall	_internal_uart_write
              120A  118A         
  2089                           	line	246
  2090                           ;Master_Internal UART.c: 246: internal_uart_write(0);
  2091  05D0  3000               	movlw	(0)
  2092  05D1  120A  118A  24D8   	fcall	_internal_uart_write
              120A  118A         
  2093                           	line	247
  2094                           	
  2095  05D6                     l3078:	
  2096                           ;Master_Internal UART.c: 247: dummy=internal_uart_read();
  2097  05D6  120A  118A  24E4   	fcall	_internal_uart_read
              120A  118A         
  2098  05DB  00F2               	movwf	(??_onoff_slave_led1+0)+0
  2099  05DC  0872               	movf	(??_onoff_slave_led1+0)+0,w
  2100  05DD  1283               	bcf	status, 5	;RP0=0, select bank0
  2101  05DE  1303               	bcf	status, 6	;RP1=0, select bank0
  2102  05DF  00AA               	movwf	(_dummy)
  2103                           	line	248
  2104                           ;Master_Internal UART.c: 248: }
  2105  05E0  2DF8               	goto	l561
  2106                           	line	249
  2107                           	
  2108  05E1                     l559:	
  2109                           	line	251
  2110                           	
  2111  05E1                     l3080:	
  2112                           ;Master_Internal UART.c: 249: else
  2113                           ;Master_Internal UART.c: 250: {
  2114                           ;Master_Internal UART.c: 251: internal_uart_write(1);
  2115  05E1  3001               	movlw	(01h)
  2116  05E2  120A  118A  24D8   	fcall	_internal_uart_write
              120A  118A         
  2117                           	line	252
  2118                           ;Master_Internal UART.c: 252: internal_uart_write(1);
  2119  05E7  3001               	movlw	(01h)
  2120  05E8  120A  118A  24D8   	fcall	_internal_uart_write
              120A  118A         
  2121                           	line	253
  2122                           	
  2123  05ED                     l3082:	
  2124                           ;Master_Internal UART.c: 253: dummy=internal_uart_read();
  2125  05ED  120A  118A  24E4   	fcall	_internal_uart_read
              120A  118A         
  2126  05F2  00F2               	movwf	(??_onoff_slave_led1+0)+0
  2127  05F3  0872               	movf	(??_onoff_slave_led1+0)+0,w
  2128  05F4  1283               	bcf	status, 5	;RP0=0, select bank0
  2129  05F5  1303               	bcf	status, 6	;RP1=0, select bank0
  2130  05F6  00AA               	movwf	(_dummy)
  2131  05F7  2DF8               	goto	l561
  2132                           	line	254
  2133                           	
  2134  05F8                     l560:	
  2135                           	line	255
  2136                           	
  2137  05F8                     l561:	
  2138  05F8  0008               	return
  2139                           	opt stack 0
  2140                           GLOBAL	__end_of_onoff_slave_led1
  2141  05F9                     	__end_of_onoff_slave_led1:
  2142 ;; =============== function _onoff_slave_led1 ends ============
  2143                           
  2144                           	signat	_onoff_slave_led1,4216
  2145                           	global	_send_config
  2146                           psect	text272,local,class=CODE,delta=2
  2147                           global __ptext272
  2148  0524                     __ptext272:
  2149                           
  2150 ;; *************** function _send_config *****************
  2151 ;; Defined at:
  2152 ;;		line 216 in file "Master_Internal UART.c"
  2153 ;; Parameters:    Size  Location     Type
  2154 ;;  data            1    wreg     unsigned char 
  2155 ;; Auto vars:     Size  Location     Type
  2156 ;;  data            1    8[COMMON] unsigned char 
  2157 ;; Return value:  Size  Location     Type
  2158 ;;		None               void
  2159 ;; Registers used:
  2160 ;;		wreg, status,2, status,0, pclath, cstack
  2161 ;; Tracked objects:
  2162 ;;		On entry : 0/0
  2163 ;;		On exit  : 0/0
  2164 ;;		Unchanged: 0/0
  2165 ;; Data sizes:     COMMON   BANK0   BANK1   BANK3   BANK2
  2166 ;;      Params:         0       0       0       0       0
  2167 ;;      Locals:         1       0       0       0       0
  2168 ;;      Temps:          0       0       0       0       0
  2169 ;;      Totals:         1       0       0       0       0
  2170 ;;Total ram usage:        1 bytes
  2171 ;; Hardware stack levels used:    1
  2172 ;; Hardware stack levels required when called:    1
  2173 ;; This function calls:
  2174 ;;		_delay
  2175 ;; This function is called by:
  2176 ;;		_main
  2177 ;;		_lcd_clr
  2178 ;;		_lcd_goto
  2179 ;; This function uses a non-reentrant model
  2180 ;;
  2181                           psect	text272
  2182                           	file	"Master_Internal UART.c"
  2183                           	line	216
  2184                           	global	__size_of_send_config
  2185  0025                     	__size_of_send_config	equ	__end_of_send_config-_send_config
  2186                           	
  2187  0524                     _send_config:	
  2188                           	opt	stack 5
  2189                           ; Regs used in _send_config: [wreg+status,2+status,0+pclath+cstack]
  2190                           ;send_config@data stored from wreg
  2191  0524  00F8               	movwf	(send_config@data)
  2192                           	line	217
  2193                           	
  2194  0525                     l3062:	
  2195                           ;Master_Internal UART.c: 217: RC4=0;
  2196  0525  1283               	bcf	status, 5	;RP0=0, select bank0
  2197  0526  1303               	bcf	status, 6	;RP1=0, select bank0
  2198  0527  1207               	bcf	(60/8),(60)&7
  2199                           	line	218
  2200                           	
  2201  0528                     l3064:	
  2202                           ;Master_Internal UART.c: 218: PORTB=data;
  2203  0528  0878               	movf	(send_config@data),w
  2204  0529  0086               	movwf	(6)	;volatile
  2205                           	line	219
  2206                           	
  2207  052A                     l3066:	
  2208                           ;Master_Internal UART.c: 219: RC5=1;
  2209  052A  1687               	bsf	(61/8),(61)&7
  2210                           	line	220
  2211                           	
  2212  052B                     l3068:	
  2213                           ;Master_Internal UART.c: 220: delay(50);
  2214  052B  3000               	movlw	0
  2215  052C  00F3               	movwf	(?_delay+3)
  2216  052D  3000               	movlw	0
  2217  052E  00F2               	movwf	(?_delay+2)
  2218  052F  3000               	movlw	0
  2219  0530  00F1               	movwf	(?_delay+1)
  2220  0531  3032               	movlw	032h
  2221  0532  00F0               	movwf	(?_delay)
  2222                           
  2223  0533  120A  118A  2594   	fcall	_delay
              120A  118A         
  2224                           	line	221
  2225                           	
  2226  0538                     l3070:	
  2227                           ;Master_Internal UART.c: 221: RC5=0;
  2228  0538  1283               	bcf	status, 5	;RP0=0, select bank0
  2229  0539  1303               	bcf	status, 6	;RP1=0, select bank0
  2230  053A  1287               	bcf	(61/8),(61)&7
  2231                           	line	222
  2232                           	
  2233  053B                     l3072:	
  2234                           ;Master_Internal UART.c: 222: delay(50);
  2235  053B  3000               	movlw	0
  2236  053C  00F3               	movwf	(?_delay+3)
  2237  053D  3000               	movlw	0
  2238  053E  00F2               	movwf	(?_delay+2)
  2239  053F  3000               	movlw	0
  2240  0540  00F1               	movwf	(?_delay+1)
  2241  0541  3032               	movlw	032h
  2242  0542  00F0               	movwf	(?_delay)
  2243                           
  2244  0543  120A  118A  2594   	fcall	_delay
              120A  118A         
  2245                           	line	223
  2246                           	
  2247  0548                     l550:	
  2248  0548  0008               	return
  2249                           	opt stack 0
  2250                           GLOBAL	__end_of_send_config
  2251  0549                     	__end_of_send_config:
  2252 ;; =============== function _send_config ends ============
  2253                           
  2254                           	signat	_send_config,4216
  2255                           	global	_delay
  2256                           psect	text273,local,class=CODE,delta=2
  2257                           global __ptext273
  2258  0594                     __ptext273:
  2259                           
  2260 ;; *************** function _delay *****************
  2261 ;; Defined at:
  2262 ;;		line 211 in file "Master_Internal UART.c"
  2263 ;; Parameters:    Size  Location     Type
  2264 ;;  data            4    0[COMMON] unsigned long 
  2265 ;; Auto vars:     Size  Location     Type
  2266 ;;		None
  2267 ;; Return value:  Size  Location     Type
  2268 ;;		None               void
  2269 ;; Registers used:
  2270 ;;		wreg
  2271 ;; Tracked objects:
  2272 ;;		On entry : 0/0
  2273 ;;		On exit  : 0/0
  2274 ;;		Unchanged: 0/0
  2275 ;; Data sizes:     COMMON   BANK0   BANK1   BANK3   BANK2
  2276 ;;      Params:         4       0       0       0       0
  2277 ;;      Locals:         0       0       0       0       0
  2278 ;;      Temps:          4       0       0       0       0
  2279 ;;      Totals:         8       0       0       0       0
  2280 ;;Total ram usage:        8 bytes
  2281 ;; Hardware stack levels used:    1
  2282 ;; This function calls:
  2283 ;;		Nothing
  2284 ;; This function is called by:
  2285 ;;		_send_config
  2286 ;;		_send_char
  2287 ;;		_lcd_clr
  2288 ;; This function uses a non-reentrant model
  2289 ;;
  2290                           psect	text273
  2291                           	file	"Master_Internal UART.c"
  2292                           	line	211
  2293                           	global	__size_of_delay
  2294  0030                     	__size_of_delay	equ	__end_of_delay-_delay
  2295                           	
  2296  0594                     _delay:	
  2297                           	opt	stack 5
  2298                           ; Regs used in _delay: [wreg]
  2299                           	line	212
  2300                           	
  2301  0594                     l3056:	
  2302                           ;Master_Internal UART.c: 212: for( ;data>0;data-=1);
  2303  0594  0873               	movf	(delay@data+3),w
  2304  0595  0472               	iorwf	(delay@data+2),w
  2305  0596  0471               	iorwf	(delay@data+1),w
  2306  0597  0470               	iorwf	(delay@data),w
  2307  0598  1D03               	skipz
  2308  0599  2D9B               	goto	u3011
  2309  059A  2D9C               	goto	u3010
  2310  059B                     u3011:
  2311  059B  2D9E               	goto	l3060
  2312  059C                     u3010:
  2313  059C  2DC3               	goto	l547
  2314                           	
  2315  059D                     l3058:	
  2316  059D  2DC3               	goto	l547
  2317                           	
  2318  059E                     l545:	
  2319                           	
  2320  059E                     l3060:	
  2321  059E  3001               	movlw	01h
  2322  059F  00F4               	movwf	((??_delay+0)+0)
  2323  05A0  3000               	movlw	0
  2324  05A1  00F5               	movwf	((??_delay+0)+0+1)
  2325  05A2  3000               	movlw	0
  2326  05A3  00F6               	movwf	((??_delay+0)+0+2)
  2327  05A4  3000               	movlw	0
  2328  05A5  00F7               	movwf	((??_delay+0)+0+3)
  2329  05A6  0874               	movf	0+(??_delay+0)+0,w
  2330  05A7  02F0               	subwf	(delay@data),f
  2331  05A8  0875               	movf	1+(??_delay+0)+0,w
  2332  05A9  1C03               	skipc
  2333  05AA  0F75               	incfsz	1+(??_delay+0)+0,w
  2334  05AB  2DAD               	goto	u3025
  2335  05AC  2DAE               	goto	u3026
  2336  05AD                     u3025:
  2337  05AD  02F1               	subwf	(delay@data+1),f
  2338  05AE                     u3026:
  2339  05AE  0876               	movf	2+(??_delay+0)+0,w
  2340  05AF  1C03               	skipc
  2341  05B0  0F76               	incfsz	2+(??_delay+0)+0,w
  2342  05B1  2DB3               	goto	u3027
  2343  05B2  2DB4               	goto	u3028
  2344  05B3                     u3027:
  2345  05B3  02F2               	subwf	(delay@data+2),f
  2346  05B4                     u3028:
  2347  05B4  0877               	movf	3+(??_delay+0)+0,w
  2348  05B5  1C03               	skipc
  2349  05B6  0F77               	incfsz	3+(??_delay+0)+0,w
  2350  05B7  2DB9               	goto	u3029
  2351  05B8  2DBA               	goto	u3020
  2352  05B9                     u3029:
  2353  05B9  02F3               	subwf	(delay@data+3),f
  2354  05BA                     u3020:
  2355                           
  2356  05BA  0873               	movf	(delay@data+3),w
  2357  05BB  0472               	iorwf	(delay@data+2),w
  2358  05BC  0471               	iorwf	(delay@data+1),w
  2359  05BD  0470               	iorwf	(delay@data),w
  2360  05BE  1D03               	skipz
  2361  05BF  2DC1               	goto	u3031
  2362  05C0  2DC2               	goto	u3030
  2363  05C1                     u3031:
  2364  05C1  2D9E               	goto	l3060
  2365  05C2                     u3030:
  2366  05C2  2DC3               	goto	l547
  2367                           	
  2368  05C3                     l546:	
  2369                           	line	213
  2370                           	
  2371  05C3                     l547:	
  2372  05C3  0008               	return
  2373                           	opt stack 0
  2374                           GLOBAL	__end_of_delay
  2375  05C4                     	__end_of_delay:
  2376 ;; =============== function _delay ends ============
  2377                           
  2378                           	signat	_delay,4216
  2379                           	global	_internal_uart_read
  2380                           psect	text274,local,class=CODE,delta=2
  2381                           global __ptext274
  2382  04E4                     __ptext274:
  2383                           
  2384 ;; *************** function _internal_uart_read *****************
  2385 ;; Defined at:
  2386 ;;		line 296 in file "Master_Internal UART.c"
  2387 ;; Parameters:    Size  Location     Type
  2388 ;;		None
  2389 ;; Auto vars:     Size  Location     Type
  2390 ;;  rec_data        1    1[COMMON] unsigned char 
  2391 ;; Return value:  Size  Location     Type
  2392 ;;                  1    wreg      unsigned char 
  2393 ;; Registers used:
  2394 ;;		wreg
  2395 ;; Tracked objects:
  2396 ;;		On entry : 0/0
  2397 ;;		On exit  : 0/0
  2398 ;;		Unchanged: 0/0
  2399 ;; Data sizes:     COMMON   BANK0   BANK1   BANK3   BANK2
  2400 ;;      Params:         0       0       0       0       0
  2401 ;;      Locals:         1       0       0       0       0
  2402 ;;      Temps:          1       0       0       0       0
  2403 ;;      Totals:         2       0       0       0       0
  2404 ;;Total ram usage:        2 bytes
  2405 ;; Hardware stack levels used:    1
  2406 ;; This function calls:
  2407 ;;		Nothing
  2408 ;; This function is called by:
  2409 ;;		_main
  2410 ;;		_onoff_slave_led1
  2411 ;;		_onoff_slave_led2
  2412 ;;		_onoff_slave_buzzer
  2413 ;; This function uses a non-reentrant model
  2414 ;;
  2415                           psect	text274
  2416                           	file	"Master_Internal UART.c"
  2417                           	line	296
  2418                           	global	__size_of_internal_uart_read
  2419  000F                     	__size_of_internal_uart_read	equ	__end_of_internal_uart_read-_internal_uart_read
  2420                           	
  2421  04E4                     _internal_uart_read:	
  2422                           	opt	stack 7
  2423                           ; Regs used in _internal_uart_read: [wreg]
  2424                           	line	298
  2425                           	
  2426  04E4                     l3050:	
  2427                           ;Master_Internal UART.c: 297: unsigned char rec_data;
  2428                           ;Master_Internal UART.c: 298: while(RCIF==0);
  2429  04E4  2CE5               	goto	l580
  2430                           	
  2431  04E5                     l581:	
  2432                           	
  2433  04E5                     l580:	
  2434  04E5  1283               	bcf	status, 5	;RP0=0, select bank0
  2435  04E6  1303               	bcf	status, 6	;RP1=0, select bank0
  2436  04E7  1E8C               	btfss	(101/8),(101)&7
  2437  04E8  2CEA               	goto	u3001
  2438  04E9  2CEB               	goto	u3000
  2439  04EA                     u3001:
  2440  04EA  2CE5               	goto	l580
  2441  04EB                     u3000:
  2442  04EB  2CEC               	goto	l3052
  2443                           	
  2444  04EC                     l582:	
  2445                           	line	299
  2446                           	
  2447  04EC                     l3052:	
  2448                           ;Master_Internal UART.c: 299: rec_data = RCREG;
  2449  04EC  081A               	movf	(26),w	;volatile
  2450  04ED  00F0               	movwf	(??_internal_uart_read+0)+0
  2451  04EE  0870               	movf	(??_internal_uart_read+0)+0,w
  2452  04EF  00F1               	movwf	(internal_uart_read@rec_data)
  2453                           	line	300
  2454                           ;Master_Internal UART.c: 300: return rec_data;
  2455  04F0  0871               	movf	(internal_uart_read@rec_data),w
  2456  04F1  2CF2               	goto	l583
  2457                           	
  2458  04F2                     l3054:	
  2459                           	line	301
  2460                           	
  2461  04F2                     l583:	
  2462  04F2  0008               	return
  2463                           	opt stack 0
  2464                           GLOBAL	__end_of_internal_uart_read
  2465  04F3                     	__end_of_internal_uart_read:
  2466 ;; =============== function _internal_uart_read ends ============
  2467                           
  2468                           	signat	_internal_uart_read,89
  2469                           	global	_internal_uart_write
  2470                           psect	text275,local,class=CODE,delta=2
  2471                           global __ptext275
  2472  04D8                     __ptext275:
  2473                           
  2474 ;; *************** function _internal_uart_write *****************
  2475 ;; Defined at:
  2476 ;;		line 290 in file "Master_Internal UART.c"
  2477 ;; Parameters:    Size  Location     Type
  2478 ;;  data            1    wreg     unsigned char 
  2479 ;; Auto vars:     Size  Location     Type
  2480 ;;  data            1    0[COMMON] unsigned char 
  2481 ;; Return value:  Size  Location     Type
  2482 ;;		None               void
  2483 ;; Registers used:
  2484 ;;		wreg
  2485 ;; Tracked objects:
  2486 ;;		On entry : 0/0
  2487 ;;		On exit  : 0/0
  2488 ;;		Unchanged: 0/0
  2489 ;; Data sizes:     COMMON   BANK0   BANK1   BANK3   BANK2
  2490 ;;      Params:         0       0       0       0       0
  2491 ;;      Locals:         1       0       0       0       0
  2492 ;;      Temps:          0       0       0       0       0
  2493 ;;      Totals:         1       0       0       0       0
  2494 ;;Total ram usage:        1 bytes
  2495 ;; Hardware stack levels used:    1
  2496 ;; This function calls:
  2497 ;;		Nothing
  2498 ;; This function is called by:
  2499 ;;		_main
  2500 ;;		_onoff_slave_led1
  2501 ;;		_onoff_slave_led2
  2502 ;;		_onoff_slave_buzzer
  2503 ;; This function uses a non-reentrant model
  2504 ;;
  2505                           psect	text275
  2506                           	file	"Master_Internal UART.c"
  2507                           	line	290
  2508                           	global	__size_of_internal_uart_write
  2509  000C                     	__size_of_internal_uart_write	equ	__end_of_internal_uart_write-_internal_uart_write
  2510                           	
  2511  04D8                     _internal_uart_write:	
  2512                           	opt	stack 7
  2513                           ; Regs used in _internal_uart_write: [wreg]
  2514                           ;internal_uart_write@data stored from wreg
  2515  04D8  00F0               	movwf	(internal_uart_write@data)
  2516                           	line	291
  2517                           	
  2518  04D9                     l3046:	
  2519                           ;Master_Internal UART.c: 291: while(TXIF==0);
  2520  04D9  2CDA               	goto	l574
  2521                           	
  2522  04DA                     l575:	
  2523                           	
  2524  04DA                     l574:	
  2525  04DA  1283               	bcf	status, 5	;RP0=0, select bank0
  2526  04DB  1303               	bcf	status, 6	;RP1=0, select bank0
  2527  04DC  1E0C               	btfss	(100/8),(100)&7
  2528  04DD  2CDF               	goto	u2991
  2529  04DE  2CE0               	goto	u2990
  2530  04DF                     u2991:
  2531  04DF  2CDA               	goto	l574
  2532  04E0                     u2990:
  2533  04E0  2CE1               	goto	l3048
  2534                           	
  2535  04E1                     l576:	
  2536                           	line	292
  2537                           	
  2538  04E1                     l3048:	
  2539                           ;Master_Internal UART.c: 292: TXREG=data;
  2540  04E1  0870               	movf	(internal_uart_write@data),w
  2541  04E2  0099               	movwf	(25)	;volatile
  2542                           	line	293
  2543                           	
  2544  04E3                     l577:	
  2545  04E3  0008               	return
  2546                           	opt stack 0
  2547                           GLOBAL	__end_of_internal_uart_write
  2548  04E4                     	__end_of_internal_uart_write:
  2549 ;; =============== function _internal_uart_write ends ============
  2550                           
  2551                           	signat	_internal_uart_write,4216
  2552                           psect	text276,local,class=CODE,delta=2
  2553                           global __ptext276
  2554  0000                     __ptext276:
  2555                           	global	btemp
  2556  007E                     	btemp set 07Eh
  2557                           
  2558                           	DABS	1,126,2	;btemp
  2559                           	global	wtemp0
  2560  007E                     	wtemp0 set btemp


HI-TECH Software PICC Macro Assembler V9.80 build 6738 
Symbol Table                                                                                   Thu Jun 28 11:01:51 2012

                           pc 0002                            fsr 0004                           l520 072F  
                         l521 072E                           l530 0797                           l522 073B  
                         l531 0796                           l523 073A                           l515 06E9  
                         l540 07FC                           l532 07BF                           l524 0759  
                         l516 0705                           l541 07FD                           l533 07BE  
                         l525 0758                           l517 0704                           l550 0548  
                         l542 07FD                           l534 07C9                           l526 0765  
                         l518 0711                           l535 07C8                           l527 0764  
                         l519 0710                           l560 05F8                           l536 07F1  
                         l528 078D                           l545 059E                           l561 05F8  
                         l553 056D                           l537 07F0                           l529 078C  
                         l546 05C3                           l570 0662                           l538 07FB  
                         l547 05C3                           l571 0662                           l539 07FA  
                         l580 04E5                           l564 0616                           l556 0506  
                         l581 04E5                           l565 062D                           l574 04DA  
                         l582 04EC                           l566 062D                           l590 0593  
                         l575 04DA                           l583 04F2                           l559 05E1  
                         l591 0593                           l576 04E1                           l577 04E3  
                         l569 064B                           l594 0516                           l586 0581  
                         l595 0523                           l587 0570                           l596 0523  
                         l589 0592                           _RA0 0028                           _RA1 0029  
                         _RA2 002A                           _RA3 002B                           _RC0 0038  
                         _RA4 002C                           _RC1 0039                           _RA5 002D  
                         _RC2 003A                           _RC3 003B                           _RC4 003C  
                         _RC5 003D                           _RX9 00C6                           _TX9 04C6  
                         fsr0 0004               send_config@data 0078                          l3100 064B  
                        l3102 0657                          l3110 0550                          l3112 055D  
                        l3104 054A                          l3120 050E                          l3200 06DD  
                        l3050 04E4                          l3114 0560                          l3106 054D  
                        l3122 0516                          l3130 057C                          l3210 06E9  
                        l3202 06E1                          l3052 04EC                          l3060 059E  
                        l3108 054F                          l3116 04F3                          l3124 051B  
                        l3132 0581                          l3300 07ED                          l3212 06ED  
                        l3220 0705                          l3204 06E5                          l3140 066D  
                        l3046 04D9                          l3054 04F2                          l3070 0538  
                        l3062 0525                          l3118 0508                          l3134 0585  
                        l3126 056F                          l3302 07F1                          l3230 0720  
                        l3222 070C                          l3214 06F1                          l3206 06E6  
                        l3150 068A                          l3142 0675                          l3048 04E1  
                        l3056 0594                          l3072 053B                          l3064 0528  
                        l3080 05E1                          l3128 0570                          l3304 07F6  
                        l3240 0741                          l3232 0727                          l3216 06F6  
                        l3224 0711                          l3208 06E7                          l3160 06A0  
                        l3152 068C                          l3144 0678                          l3136 0663  
                        l3058 059D                          l3066 052A                          l3082 05ED  
                        l3074 05C5                          l3090 0616                          l3250 0760  
                        l3242 0745                          l3226 0717                          l3234 072F  
                        l3218 06FD                          l3170 06B1                          l3162 06A6  
                        l3154 068E                          l3146 0686                          l3138 0668  
                        l3068 052B                          l3076 05CA                          l3092 0622  
                        l3084 05FA                          l3260 0780                          l3244 074A  
                        l3252 0765                          l3236 0736                          l3228 071B  
                        l3180 06C9                          l3172 06B2                          l3164 06AC  
                        l3156 0694                          l3148 0689                          l3078 05D6  
                        l3086 05FF                          l3094 062F                          l3262 0784  
                        l3270 0797                          l3254 076B                          l3246 0751  
                        l3238 073B                          l3190 06D6                          l3182 06CF  
                        l3174 06B7                          l3166 06AF                          l3158 069A  
                        l3088 060B                          l3096 0634                          l3280 07B6  
                        l3272 079D                          l3264 0789                          l3256 0771  
                        l3248 0759                          l3192 06D7                          l3184 06D2  
                        l3176 06BD                          l3168 06B0                          l3098 0640  
                        l3290 07CF                          l3282 07BB                          l3274 07A3  
                        l3266 078D                          l3258 077B                          l3194 06D8  
                        l3186 06D3                          l3178 06C3                          l3292 07D5  
                        l3284 07BF                          l3276 07AD                          l3268 0792  
                        l3196 06DB                          l3188 06D5                          l3294 07DF  
                        l3286 07C4                          l3278 07B2                          l3198 06DC  
                        l3296 07E4                          l3288 07C9                          l3298 07E8  
                        STR_1 0019                          STR_2 0009                          _BRGH 04C2  
                        _CREN 00C4                          u3000 04EB                          u3001 04EA  
                        u3010 059C                          u3011 059B                          u3020 05BA  
                        u3100 06ED                          u3101 06EC                          u3030 05C2  
                        u3110 06F1                          u3031 05C1                          u3040 05CA  
                        u3200 0784                          u3120 070C                          u3025 05AD  
                        u3041 05C9                          u3121 070B                          u3026 05AE  
                        u3050 05FF                          u3210 0792                          u3130 0717  
                        u3027 05B3                          u3051 05FE                          u3211 0791  
                        u3131 0716                          u3028 05B4                          u3060 0634  
                        u3220 07B2                          u3140 071B                          u3029 05B9  
                        u3061 0633                          u3221 07B1                          u3070 050E  
                        u3230 07B6                          u3150 0736                          u3071 050D  
                        u3151 0735                          u3080 0585                          u3240 07C4  
                        u3160 0741                          u3241 07C3                          u3161 0740  
                        u3090 0591                          u3250 07E4                          u3170 0745  
                        u3091 0590                          u3251 07E3                          u3260 07E8  
                        u3180 0760                          u3181 075F                          u3270 07F6  
                        u3190 0780                          u3271 07F5                          u3191 077F  
                        _RCIF 0065                          u2990 04E0                          u2991 04DF  
                        _SPEN 00C7                          _TXEN 04C5                          _TXIF 0064  
                        _main 0663                          btemp 007E                  lcd_goto@data 007A  
                        start 0000            main@slave_sw1_flag 0027            main@slave_sw2_flag 0028  
          main@slave_sw3_flag 0029                         ?_main 0070           main@slave_led1_flag 0021  
         main@slave_led2_flag 0022                  main@sw1_flag 0024                         _RCREG 001A  
                main@sw2_flag 0025                  main@sw3_flag 0026                         _SPBRG 0099  
                       _PORTB 0006                         _TRISA 0085                         _TRISB 0086  
                       _TRISC 0087                         _TXREG 0019               __end_of_lcd_clr 0507  
                       _delay 0594                         _dummy 002A                         pclath 000A  
                       status 0003                         wtemp0 007E             onoff_slave_led1@a 0073  
           onoff_slave_led2@b 0073                  __end_of_main 0800                        ??_main 007B  
                      ?_delay 0070                  ?_send_config 0070                        _ADCON1 009F  
                ?_send_string 0070                        _TRISC0 0438                        _TRISC1 0439  
                      _TRISC2 043A                        _TRISC3 043B                        _TRISC6 043E  
                      _TRISC7 043F              __end_of_lcd_goto 0524   __size_of_onoff_slave_buzzer 0035  
           ?_onoff_slave_led1 0070             ?_onoff_slave_led2 0070            ??_onoff_slave_led1 0072  
          ??_onoff_slave_led2 0072                     ??_lcd_clr 0079                __pcstackCOMMON 0070  
                __pidataBANK0 04CC                 __end_of_delay 05C4            _internal_uart_read 04E4  
         ?_internal_uart_read 0070                       ??_delay 0074          ??_internal_uart_read 0070  
                  __pmaintext 0663  __size_of_internal_uart_write 000C            __size_of_send_char 0025  
                   ?_lcd_goto 0070          __size_of_send_config 0025    internal_uart_read@rec_data 0071  
        __size_of_send_string 0026                    _dummy_byte 007C                       _lcd_clr 04F3  
                  ??_lcd_goto 0079          end_of_initialization 04D4             __end_of_send_char 056E  
               send_char@data 0078     __size_of_onoff_slave_led1 0035     __size_of_onoff_slave_led2 0035  
  __end_of_onoff_slave_buzzer 0663           start_initialization 04CD           _internal_uart_write 04D8  
       main@slave_buzzer_flag 0023           onoff_slave_buzzer@c 0073          ?_internal_uart_write 0070  
                 __pdataBANK0 002A                   __pbssCOMMON 007C                 __pcstackBANK0 0020  
           __size_of_lcd_goto 001D   __size_of_internal_uart_read 000F         ??_internal_uart_write 0070  
                   __ptext270 05F9                     __ptext271 05C4                     __ptext272 0524  
                   __ptext273 0594                     __ptext265 056E                     __ptext274 04E4  
                   __ptext266 0507                     __ptext275 04D8                     __ptext267 04F3  
                   __ptext276 0000                     __ptext268 0549                     __ptext269 062E  
                   __pstrings 0003                      ?_lcd_clr 0070                 ??_send_config 0078  
            _onoff_slave_led1 05C4              _onoff_slave_led2 05F9                __size_of_delay 0030  
                   delay@data 0070                 ??_send_string 0079                     _send_char 0549  
                 __stringbase 0008           __end_of_send_config 0549                    ?_send_char 0070  
                send_string@s 007A           __end_of_send_string 0594            _onoff_slave_buzzer 062E  
            __size_of_lcd_clr 0014           ?_onoff_slave_buzzer 0070       internal_uart_write@data 0070  
                    _lcd_goto 0507                 __size_of_main 019D          ??_onoff_slave_buzzer 0072  
                    main@temp 0020                   _send_config 0524                   _send_string 056E  
                 ??_send_char 0078                     stringcode 0003      __end_of_onoff_slave_led1 05F9  
    __end_of_onoff_slave_led2 062E                      stringdir 0003                      stringtab 0003  
 __end_of_internal_uart_write 04E4    __end_of_internal_uart_read 04F3  
