

HI-TECH Software PIC LITE Macro Assembler V1.00 build 12136 
                                                                                               Thu Jun 28 11:03:05 2012

HI-TECH Software Omniscient Code Generator (Lite mode) build 12136
     1  0000                     opt subtitle "HI-TECH Software Omniscient Code Generator (Lite mode) build 12136"
     2                           
     3                           opt pagewidth 120
     4                           
     5                           	opt lm
     6                           
     7                           	processor	16F876A
     8                           clrc	macro
     9                           	bcf	3,0
    10  0000                     	endm
    11                           clrz	macro
    12                           	bcf	3,2
    13  0000                     	endm
    14                           setc	macro
    15                           	bsf	3,0
    16  0000                     	endm
    17                           setz	macro
    18                           	bsf	3,2
    19  0000                     	endm
    20                           skipc	macro
    21                           	btfss	3,0
    22  0000                     	endm
    23                           skipz	macro
    24                           	btfss	3,2
    25  0000                     	endm
    26                           skipnc	macro
    27                           	btfsc	3,0
    28  0000                     	endm
    29                           skipnz	macro
    30                           	btfsc	3,2
    31  0000                     	endm
    32  0000                     indf	equ	0
    33  0000                     indf0	equ	0
    34  0002                     pc	equ	2
    35  0002                     pcl	equ	2
    36  0003                     status	equ	3
    37  0004                     fsr	equ	4
    38  0004                     fsr0	equ	4
    39  0001                     c	equ	1
    40  0000                     z	equ	0
    41  000A                     pclath	equ	10
    42                           # 14 "Slave_Programmed UART_1.c"
    43                           psect config,class=CONFIG,delta=2 ;# 
    44                           # 14 "Slave_Programmed UART_1.c"
    45  2007  3F32               dw 0x3F32 ;# 
    46                           	FNCALL	_main,_send_config
    47                           	FNCALL	_main,_lcd_clr
    48                           	FNCALL	_main,_lcd_goto
    49                           	FNCALL	_main,_send_string
    50                           	FNCALL	_main,_uart_init
    51                           	FNCALL	_main,_uart_read
    52                           	FNCALL	_main,_uart_write
    53                           	FNCALL	_main,_send_char
    54                           	FNCALL	_lcd_clr,_send_config
    55                           	FNCALL	_lcd_clr,_delay
    56                           	FNCALL	_lcd_goto,_send_config
    57                           	FNCALL	_send_config,_delay
    58                           	FNCALL	_send_string,_send_char
    59                           	FNCALL	_send_char,_delay
    60                           	FNROOT	_main
    61                           	global	_dummy_byte
    62                           	global	_k
    63                           	global	_m
    64                           	global	_PORTB
    65  0006                     _PORTB	set	0x6
    66                           	global	_RA0
    67  0028                     _RA0	set	0x28
    68                           	global	_RA1
    69  0029                     _RA1	set	0x29
    70                           	global	_RA2
    71  002A                     _RA2	set	0x2A
    72                           	global	_RA3
    73  002B                     _RA3	set	0x2B
    74                           	global	_RA4
    75  002C                     _RA4	set	0x2C
    76                           	global	_RA5
    77  002D                     _RA5	set	0x2D
    78                           	global	_RC0
    79  0038                     _RC0	set	0x38
    80                           	global	_RC1
    81  0039                     _RC1	set	0x39
    82                           	global	_RC2
    83  003A                     _RC2	set	0x3A
    84                           	global	_RC3
    85  003B                     _RC3	set	0x3B
    86                           	global	_RC4
    87  003C                     _RC4	set	0x3C
    88                           	global	_RC5
    89  003D                     _RC5	set	0x3D
    90                           	global	_ADCON1
    91  009F                     _ADCON1	set	0x9F
    92                           	global	_TRISA
    93  0085                     _TRISA	set	0x85
    94                           	global	_TRISB
    95  0086                     _TRISB	set	0x86
    96                           	global	_TRISC
    97  0087                     _TRISC	set	0x87
    98                           	global	_TRISC0
    99  0438                     _TRISC0	set	0x438
   100                           	global	_TRISC1
   101  0439                     _TRISC1	set	0x439
   102                           	global	_TRISC2
   103  043A                     _TRISC2	set	0x43A
   104                           	global	_TRISC3
   105  043B                     _TRISC3	set	0x43B
   106                           psect	strings,class=STRING,delta=2
   107                           global __pstrings
   108  0003                     __pstrings:
   109                           ;	global	stringdir,stringtab,__stringbase
   110  0003                     stringtab:
   111                           ;	String table - string pointers are 1 byte each
   112  0003                     stringcode:stringdir:
      + 0003                     stringdir:	
   113  0003  3000               movlw high(stringdir)
   114  0004  008A               movwf pclath
   115  0005  0804               movf fsr,w
   116  0006  0A84               incf fsr
   117  0007  0782               	addwf pc
   118  0008                     __stringbase:
   119  0008  3400               	retlw	0
   120                           psect	strings
   121                           	
   122  0009                     STR_2:	
   123  0009  3453               	retlw	83	;'S'
   124  000A  344C               	retlw	76	;'L'
   125  000B  3441               	retlw	65	;'A'
   126  000C  3456               	retlw	86	;'V'
   127  000D  3445               	retlw	69	;'E'
   128  000E  3420               	retlw	32	;' '
   129  000F  3455               	retlw	85	;'U'
   130  0010  3441               	retlw	65	;'A'
   131  0011  3452               	retlw	82	;'R'
   132  0012  3454               	retlw	84	;'T'
   133  0013  345F               	retlw	95	;'_'
   134  0014  3431               	retlw	49	;'1'
   135  0015  3400               	retlw	0
   136                           psect	strings
   137                           	
   138  0016                     STR_1:	
   139  0016  3443               	retlw	67	;'C'
   140  0017  3479               	retlw	121	;'y'
   141  0018  3474               	retlw	116	;'t'
   142  0019  3472               	retlw	114	;'r'
   143  001A  346F               	retlw	111	;'o'
   144  001B  346E               	retlw	110	;'n'
   145  001C  3420               	retlw	32	;' '
   146  001D  3450               	retlw	80	;'P'
   147  001E  3452               	retlw	82	;'R'
   148  001F  3432               	retlw	50	;'2'
   149  0020  3437               	retlw	55	;'7'
   150  0021  3400               	retlw	0
   151                           psect	strings
   152                           	file	"C:\Users\HATAKE~1\AppData\Local\Temp\s1d54."
   153                           	line	#
   154                           psect cinit,class=CODE,delta=2
   155                           global start_initialization
   156  00E2                     start_initialization:
   157                           
   158                           psect	bssCOMMON,class=COMMON,space=1
   159                           global __pbssCOMMON
   160  007D                     __pbssCOMMON:
   161  007D                     _dummy_byte:
   162  007D                            ds      1
   163                           
   164                           psect	bssBANK0,class=BANK0,space=1
   165                           global __pbssBANK0
   166  0020                     __pbssBANK0:
   167  0020                     _k:
   168  0020                            ds      2
   169                           
   170  0022                     _m:
   171  0022                            ds      2
   172                           
   173                           ; Clear objects allocated to COMMON
   174                           psect cinit,class=CODE,delta=2,merge=1
   175  00E2  01FD               	clrf	((__pbssCOMMON)+0)&07Fh
   176                           ; Clear objects allocated to BANK0
   177                           psect cinit,class=CODE,delta=2,merge=1
   178  00E3  01A0               	clrf	((__pbssBANK0)+0)&07Fh
   179  00E4  01A1               	clrf	((__pbssBANK0)+1)&07Fh
   180  00E5  01A2               	clrf	((__pbssBANK0)+2)&07Fh
   181  00E6  01A3               	clrf	((__pbssBANK0)+3)&07Fh
   182                           psect cinit,class=CODE,delta=2,merge=1
   183                           global end_of_initialization
   184                           
   185                           ;End of C runtime variable initialization code
   186                           
   187  00E7                     end_of_initialization:
   188  00E7  0183               clrf status
   189  00E8  120A  118A  2A36   ljmp _main	;jump to C main() function
   190                           psect	cstackCOMMON,class=COMMON,space=1
   191                           global __pcstackCOMMON
   192  0070                     __pcstackCOMMON:
   193                           	global	?_send_config
   194  0070                     ?_send_config:	; 0 bytes @ 0x0
   195                           	global	?_lcd_clr
   196  0070                     ?_lcd_clr:	; 0 bytes @ 0x0
   197                           	global	?_lcd_goto
   198  0070                     ?_lcd_goto:	; 0 bytes @ 0x0
   199                           	global	?_send_string
   200  0070                     ?_send_string:	; 0 bytes @ 0x0
   201                           	global	?_uart_init
   202  0070                     ?_uart_init:	; 0 bytes @ 0x0
   203                           	global	??_uart_init
   204  0070                     ??_uart_init:	; 0 bytes @ 0x0
   205                           	global	??_uart_read
   206  0070                     ??_uart_read:	; 0 bytes @ 0x0
   207                           	global	?_uart_write
   208  0070                     ?_uart_write:	; 0 bytes @ 0x0
   209                           	global	?_send_char
   210  0070                     ?_send_char:	; 0 bytes @ 0x0
   211                           	global	?_main
   212  0070                     ?_main:	; 0 bytes @ 0x0
   213                           	global	?_delay
   214  0070                     ?_delay:	; 0 bytes @ 0x0
   215                           	global	?_uart_read
   216  0070                     ?_uart_read:	; 1 bytes @ 0x0
   217                           	global	uart_init@channel
   218  0070                     uart_init@channel:	; 1 bytes @ 0x0
   219                           	global	uart_write@data
   220  0070                     uart_write@data:	; 1 bytes @ 0x0
   221                           	global	delay@data
   222  0070                     delay@data:	; 4 bytes @ 0x0
   223  0070                     	ds	1
   224                           	global	??_uart_write
   225  0071                     ??_uart_write:	; 0 bytes @ 0x1
   226  0071                     	ds	1
   227                           	global	uart_read@dummy_mask
   228  0072                     uart_read@dummy_mask:	; 1 bytes @ 0x2
   229  0072                     	ds	1
   230                           	global	uart_write@channel
   231  0073                     uart_write@channel:	; 1 bytes @ 0x3
   232                           	global	uart_read@channel
   233  0073                     uart_read@channel:	; 1 bytes @ 0x3
   234  0073                     	ds	1
   235                           	global	??_delay
   236  0074                     ??_delay:	; 0 bytes @ 0x4
   237                           	global	uart_write@i
   238  0074                     uart_write@i:	; 1 bytes @ 0x4
   239                           	global	uart_read@result
   240  0074                     uart_read@result:	; 1 bytes @ 0x4
   241  0074                     	ds	1
   242                           	global	uart_read@i
   243  0075                     uart_read@i:	; 1 bytes @ 0x5
   244  0075                     	ds	3
   245                           	global	??_send_config
   246  0078                     ??_send_config:	; 0 bytes @ 0x8
   247                           	global	??_send_char
   248  0078                     ??_send_char:	; 0 bytes @ 0x8
   249                           	global	send_config@data
   250  0078                     send_config@data:	; 1 bytes @ 0x8
   251                           	global	send_char@data
   252  0078                     send_char@data:	; 1 bytes @ 0x8
   253  0078                     	ds	1
   254                           	global	??_lcd_clr
   255  0079                     ??_lcd_clr:	; 0 bytes @ 0x9
   256                           	global	??_lcd_goto
   257  0079                     ??_lcd_goto:	; 0 bytes @ 0x9
   258                           	global	??_send_string
   259  0079                     ??_send_string:	; 0 bytes @ 0x9
   260  0079                     	ds	1
   261                           	global	send_string@s
   262  007A                     send_string@s:	; 1 bytes @ 0xA
   263                           	global	lcd_goto@data
   264  007A                     lcd_goto@data:	; 1 bytes @ 0xA
   265  007A                     	ds	1
   266                           	global	??_main
   267  007B                     ??_main:	; 0 bytes @ 0xB
   268  007B                     	ds	1
   269                           	global	main@data_to_read
   270  007C                     main@data_to_read:	; 1 bytes @ 0xC
   271  007C                     	ds	1
   272                           ;!
   273                           ;!Data Sizes:
   274                           ;!    Strings     25
   275                           ;!    Constant    0
   276                           ;!    Data        0
   277                           ;!    BSS         5
   278                           ;!    Persistent  0
   279                           ;!    Stack       0
   280                           ;!
   281                           ;!Auto Spaces:
   282                           ;!    Space          Size  Autos    Used
   283                           ;!    COMMON           14     13      14
   284                           ;!    BANK0            80      0       4
   285                           ;!    BANK1            80      0       0
   286                           ;!    BANK3            96      0       0
   287                           ;!    BANK2            96      0       0
   288                           
   289                           ;!
   290                           ;!Pointer List with Targets:
   291                           ;!
   292                           ;!    send_string@s	PTR const unsigned char  size(1) Largest target is 13
   293                           ;!		 -> STR_2(CODE[13]), STR_1(CODE[12]), 
   294                           ;!
   295                           
   296                           
   297                           ;!
   298                           ;!Critical Paths under _main in COMMON
   299                           ;!
   300                           ;!    _main->_lcd_goto
   301                           ;!    _main->_send_string
   302                           ;!    _lcd_clr->_send_config
   303                           ;!    _lcd_goto->_send_config
   304                           ;!    _send_config->_delay
   305                           ;!    _send_string->_send_char
   306                           ;!    _send_char->_delay
   307                           ;!
   308                           ;!Critical Paths under _main in BANK0
   309                           ;!
   310                           ;!    None.
   311                           ;!
   312                           ;!Critical Paths under _main in BANK1
   313                           ;!
   314                           ;!    None.
   315                           ;!
   316                           ;!Critical Paths under _main in BANK3
   317                           ;!
   318                           ;!    None.
   319                           ;!
   320                           ;!Critical Paths under _main in BANK2
   321                           ;!
   322                           ;!    None.
   323                           
   324 ;;
   325 ;;Main: autosize = 0, tempsize = 1, incstack = 0, save=0
   326 ;;
   327                           
   328                           ;!
   329                           ;!Call Graph Tables:
   330                           ;!
   331                           ;! ---------------------------------------------------------------------------------
   332                           ;! (Depth) Function   	        Calls       Base Space   Used Autos Params    Refs
   333                           ;! ---------------------------------------------------------------------------------
   334                           ;! (0) _main                                                 2     2      0    2413
   335                           ;!                                             11 COMMON     2     2      0
   336                           ;!                        _send_config
   337                           ;!                            _lcd_clr
   338                           ;!                           _lcd_goto
   339                           ;!                        _send_string
   340                           ;!                          _uart_init
   341                           ;!                          _uart_read
   342                           ;!                         _uart_write
   343                           ;!                          _send_char
   344                           ;! ---------------------------------------------------------------------------------
   345                           ;! (1) _lcd_clr                                              0     0      0     112
   346                           ;!                        _send_config
   347                           ;!                              _delay
   348                           ;! ---------------------------------------------------------------------------------
   349                           ;! (1) _lcd_goto                                             2     2      0     156
   350                           ;!                                              9 COMMON     2     2      0
   351                           ;!                        _send_config
   352                           ;! ---------------------------------------------------------------------------------
   353                           ;! (2) _send_config                                          1     1      0      67
   354                           ;!                                              8 COMMON     1     1      0
   355                           ;!                              _delay
   356                           ;! ---------------------------------------------------------------------------------
   357                           ;! (1) _send_string                                          2     2      0     134
   358                           ;!                                              9 COMMON     2     2      0
   359                           ;!                          _send_char
   360                           ;! ---------------------------------------------------------------------------------
   361                           ;! (1) _uart_init                                            1     1      0      22
   362                           ;!                                              0 COMMON     1     1      0
   363                           ;! ---------------------------------------------------------------------------------
   364                           ;! (1) _uart_read                                            6     6      0     775
   365                           ;!                                              0 COMMON     6     6      0
   366                           ;! ---------------------------------------------------------------------------------
   367                           ;! (1) _uart_write                                           5     4      1     918
   368                           ;!                                              0 COMMON     5     4      1
   369                           ;! ---------------------------------------------------------------------------------
   370                           ;! (1) _send_char                                            1     1      0      67
   371                           ;!                                              8 COMMON     1     1      0
   372                           ;!                              _delay
   373                           ;! ---------------------------------------------------------------------------------
   374                           ;! (2) _delay                                                8     4      4      45
   375                           ;!                                              0 COMMON     8     4      4
   376                           ;! ---------------------------------------------------------------------------------
   377                           ;! Estimated maximum stack depth 2
   378                           ;! ---------------------------------------------------------------------------------
   379                           ;!
   380                           ;! Call Graph Graphs:
   381                           ;!
   382                           ;! _main (ROOT)
   383                           ;!   _send_config
   384                           ;!     _delay
   385                           ;!   _lcd_clr
   386                           ;!     _send_config
   387                           ;!       _delay
   388                           ;!     _delay
   389                           ;!   _lcd_goto
   390                           ;!     _send_config
   391                           ;!       _delay
   392                           ;!   _send_string
   393                           ;!     _send_char
   394                           ;!       _delay
   395                           ;!   _uart_init
   396                           ;!   _uart_read
   397                           ;!   _uart_write
   398                           ;!   _send_char
   399                           ;!     _delay
   400                           ;!
   401                           
   402                           ;! Address spaces:
   403                           
   404                           ;!Name               Size   Autos  Total    Cost      Usage
   405                           ;!BITCOMMON            E      0       0       0        0.0%
   406                           ;!EEDATA             100      0       0       0        0.0%
   407                           ;!NULL                 0      0       0       0        0.0%
   408                           ;!CODE                 0      0       0       0        0.0%
   409                           ;!COMMON               E      D       E       1      100.0%
   410                           ;!BITSFR0              0      0       0       1        0.0%
   411                           ;!SFR0                 0      0       0       1        0.0%
   412                           ;!BITSFR1              0      0       0       2        0.0%
   413                           ;!SFR1                 0      0       0       2        0.0%
   414                           ;!STACK                0      0       3       2        0.0%
   415                           ;!ABS                  0      0      12       3        0.0%
   416                           ;!BITBANK0            50      0       0       4        0.0%
   417                           ;!BITSFR3              0      0       0       4        0.0%
   418                           ;!SFR3                 0      0       0       4        0.0%
   419                           ;!BANK0               50      0       4       5        5.0%
   420                           ;!BITSFR2              0      0       0       5        0.0%
   421                           ;!SFR2                 0      0       0       5        0.0%
   422                           ;!BITBANK1            50      0       0       6        0.0%
   423                           ;!BANK1               50      0       0       7        0.0%
   424                           ;!BITBANK3            60      0       0       8        0.0%
   425                           ;!BANK3               60      0       0       9        0.0%
   426                           ;!BITBANK2            60      0       0      10        0.0%
   427                           ;!BANK2               60      0       0      11        0.0%
   428                           ;!DATA                 0      0      15      12        0.0%
   429                           
   430                           	global	_main
   431                           
   432 ;; *************** function _main *****************
   433 ;; Defined at:
   434 ;;		line 45 in file "Slave_Programmed UART_1.c"
   435 ;; Parameters:    Size  Location     Type
   436 ;;		None
   437 ;; Auto vars:     Size  Location     Type
   438 ;;  data_to_read    1   12[COMMON] unsigned char 
   439 ;; Return value:  Size  Location     Type
   440 ;;		None               void
   441 ;; Registers used:
   442 ;;		wreg, fsr0l, fsr0h, status,2, status,0, btemp+1, pclath, cstack
   443 ;; Tracked objects:
   444 ;;		On entry : 17F/0
   445 ;;		On exit  : 0/0
   446 ;;		Unchanged: 0/0
   447 ;; Data sizes:     COMMON   BANK0   BANK1   BANK3   BANK2
   448 ;;      Params:         0       0       0       0       0
   449 ;;      Locals:         1       0       0       0       0
   450 ;;      Temps:          1       0       0       0       0
   451 ;;      Totals:         2       0       0       0       0
   452 ;;Total ram usage:        2 bytes
   453 ;; Hardware stack levels required when called:    3
   454 ;; This function calls:
   455 ;;		_send_config
   456 ;;		_lcd_clr
   457 ;;		_lcd_goto
   458 ;;		_send_string
   459 ;;		_uart_init
   460 ;;		_uart_read
   461 ;;		_uart_write
   462 ;;		_send_char
   463 ;; This function is called by:
   464 ;;		Startup code after reset
   465 ;; This function uses a non-reentrant model
   466 ;;
   467                           psect	maintext,global,class=CODE,delta=2,split=1
   468                           global __pmaintext
   469  0236                     __pmaintext:
   470                           psect	maintext
   471                           	file	"Slave_Programmed UART_1.c"
   472                           	line	45
   473                           	global	__size_of_main
   474  01B1                     	__size_of_main	equ	__end_of_main-_main
   475                           	
   476  0236                     _main:	
   477                           	opt	stack 5
   478                           ; Regs used in _main: [wreg-fsr0h+status,2+status,0+btemp+1+pclath+cstack]
   479                           	line	47
   480                           	
   481  0236                     l1708:	
   482                           ;Slave_Programmed UART_1.c: 47: unsigned char data_to_read=0;
   483  0236  01FC               	clrf	(main@data_to_read)
   484                           	line	50
   485                           	
   486  0237                     l1710:	
   487                           ;Slave_Programmed UART_1.c: 50: TRISB = 0b00000000;
   488  0237  1683               	bsf	status, 5	;RP0=1, select bank1
   489  0238  1303               	bcf	status, 6	;RP1=0, select bank1
   490  0239  0186               	clrf	(134)^080h	;volatile
   491                           	line	51
   492                           ;Slave_Programmed UART_1.c: 51: TRISC = 0b00000000;
   493  023A  0187               	clrf	(135)^080h	;volatile
   494                           	line	52
   495                           	
   496  023B                     l1712:	
   497                           ;Slave_Programmed UART_1.c: 52: TRISA = 0b00011100;
   498  023B  301C               	movlw	(01Ch)
   499  023C  0085               	movwf	(133)^080h	;volatile
   500                           	line	53
   501                           	
   502  023D                     l1714:	
   503                           ;Slave_Programmed UART_1.c: 53: ADCON1 = 0b00000110;
   504  023D  3006               	movlw	(06h)
   505  023E  009F               	movwf	(159)^080h	;volatile
   506                           	line	56
   507                           	
   508  023F                     l1716:	
   509                           ;Slave_Programmed UART_1.c: 56: send_config(0b00000001);
   510  023F  3001               	movlw	(01h)
   511  0240  120A  118A  2141   	fcall	_send_config
              120A  118A         
   512                           	line	57
   513                           	
   514  0245                     l1718:	
   515                           ;Slave_Programmed UART_1.c: 57: send_config(0b00000010);
   516  0245  3002               	movlw	(02h)
   517  0246  120A  118A  2141   	fcall	_send_config
              120A  118A         
   518                           	line	58
   519                           	
   520  024B                     l1720:	
   521                           ;Slave_Programmed UART_1.c: 58: send_config(0b00000110);
   522  024B  3006               	movlw	(06h)
   523  024C  120A  118A  2141   	fcall	_send_config
              120A  118A         
   524                           	line	59
   525                           	
   526  0251                     l1722:	
   527                           ;Slave_Programmed UART_1.c: 59: send_config(0b00001100);
   528  0251  300C               	movlw	(0Ch)
   529  0252  120A  118A  2141   	fcall	_send_config
              120A  118A         
   530                           	line	60
   531                           	
   532  0257                     l1724:	
   533                           ;Slave_Programmed UART_1.c: 60: send_config(0b00111000);
   534  0257  3038               	movlw	(038h)
   535  0258  120A  118A  2141   	fcall	_send_config
              120A  118A         
   536                           	line	63
   537                           	
   538  025D                     l1726:	
   539                           ;Slave_Programmed UART_1.c: 63: RA1=0;
   540  025D  1283               	bcf	status, 5	;RP0=0, select bank0
   541  025E  1303               	bcf	status, 6	;RP1=0, select bank0
   542  025F  1085               	bcf	(41/8),(41)&7	;volatile
   543                           	line	64
   544                           	
   545  0260                     l1728:	
   546                           ;Slave_Programmed UART_1.c: 64: RA0=0;
   547  0260  1005               	bcf	(40/8),(40)&7	;volatile
   548                           	line	65
   549                           	
   550  0261                     l1730:	
   551                           ;Slave_Programmed UART_1.c: 65: RA5=0;
   552  0261  1285               	bcf	(45/8),(45)&7	;volatile
   553                           	line	66
   554                           	
   555  0262                     l1732:	
   556                           ;Slave_Programmed UART_1.c: 66: PORTB=0;
   557  0262  0186               	clrf	(6)	;volatile
   558                           	line	67
   559                           ;Slave_Programmed UART_1.c: 67: lcd_clr();
   560  0263  120A  118A  20EB   	fcall	_lcd_clr
              120A  118A         
   561                           	line	68
   562                           ;Slave_Programmed UART_1.c: 68: lcd_goto(0);
   563  0268  3000               	movlw	(0)
   564  0269  120A  118A  20FF   	fcall	_lcd_goto
              120A  118A         
   565                           	line	69
   566                           	
   567  026E                     l1734:	
   568                           ;Slave_Programmed UART_1.c: 69: send_string("Cytron PR27");
   569  026E  300E               	movlw	((STR_1-__stringbase))&0ffh
   570  026F  120A  118A  2166   	fcall	_send_string
              120A  118A         
   571                           	line	70
   572                           	
   573  0274                     l1736:	
   574                           ;Slave_Programmed UART_1.c: 70: lcd_goto(20);
   575  0274  3014               	movlw	(014h)
   576  0275  120A  118A  20FF   	fcall	_lcd_goto
              120A  118A         
   577                           	line	71
   578                           ;Slave_Programmed UART_1.c: 71: send_string("SLAVE UART_1");
   579  027A  3001               	movlw	((STR_2-__stringbase))&0ffh
   580  027B  120A  118A  2166   	fcall	_send_string
              120A  118A         
   581                           	line	72
   582                           ;Slave_Programmed UART_1.c: 72: uart_init(1);
   583  0280  3001               	movlw	(01h)
   584  0281  120A  118A  21BC   	fcall	_uart_init
              120A  118A         
   585                           	line	84
   586                           ;Slave_Programmed UART_1.c: 84: while(1)
   587                           	
   588  0286                     l49:	
   589                           	line	86
   590                           ;Slave_Programmed UART_1.c: 85: {
   591                           ;Slave_Programmed UART_1.c: 86: data_to_read=uart_read(1);
   592  0286  3001               	movlw	(01h)
   593  0287  120A  118A  25E7   	fcall	_uart_read
              120A  118A         
   594  028C  00FB               	movwf	(??_main+0)+0
   595  028D  087B               	movf	(??_main+0)+0,w
   596  028E  00FC               	movwf	(main@data_to_read)
   597                           	line	88
   598                           ;Slave_Programmed UART_1.c: 88: switch(data_to_read)
   599  028F  2BCE               	goto	l1808
   600                           	line	90
   601                           ;Slave_Programmed UART_1.c: 89: {
   602                           ;Slave_Programmed UART_1.c: 90: case 1:
   603                           	
   604  0290                     l51:	
   605                           	line	91
   606                           	
   607  0290                     l1738:	
   608                           ;Slave_Programmed UART_1.c: 91: data_to_read=uart_read(1);
   609  0290  3001               	movlw	(01h)
   610  0291  120A  118A  25E7   	fcall	_uart_read
              120A  118A         
   611  0296  00FB               	movwf	(??_main+0)+0
   612  0297  087B               	movf	(??_main+0)+0,w
   613  0298  00FC               	movwf	(main@data_to_read)
   614                           	line	92
   615                           	
   616  0299                     l1740:	
   617                           ;Slave_Programmed UART_1.c: 92: if(data_to_read==0)RA1=0;
   618  0299  08FC               	movf	(main@data_to_read),f
   619  029A  1D03               	skipz
   620  029B  2A9D               	goto	u1321
   621  029C  2A9E               	goto	u1320
   622  029D                     u1321:
   623  029D  2AA2               	goto	l52
   624  029E                     u1320:
   625                           	
   626  029E                     l1742:	
   627  029E  1283               	bcf	status, 5	;RP0=0, select bank0
   628  029F  1303               	bcf	status, 6	;RP1=0, select bank0
   629  02A0  1085               	bcf	(41/8),(41)&7	;volatile
   630  02A1  2AA6               	goto	l1744
   631                           	line	93
   632                           	
   633  02A2                     l52:	
   634                           ;Slave_Programmed UART_1.c: 93: else RA1=1;
   635  02A2  1283               	bcf	status, 5	;RP0=0, select bank0
   636  02A3  1303               	bcf	status, 6	;RP1=0, select bank0
   637  02A4  1485               	bsf	(41/8),(41)&7	;volatile
   638  02A5  2AA6               	goto	l1744
   639                           	
   640  02A6                     l53:	
   641                           	line	94
   642                           	
   643  02A6                     l1744:	
   644                           ;Slave_Programmed UART_1.c: 94: uart_write(1,'a');
   645  02A6  3061               	movlw	(061h)
   646  02A7  00FB               	movwf	(??_main+0)+0
   647  02A8  087B               	movf	(??_main+0)+0,w
   648  02A9  00F0               	movwf	(?_uart_write)
   649  02AA  3001               	movlw	(01h)
   650  02AB  120A  118A  23E7   	fcall	_uart_write
              120A  118A         
   651                           	line	95
   652                           ;Slave_Programmed UART_1.c: 95: break;
   653  02B0  2A86               	goto	l49
   654                           	line	97
   655                           ;Slave_Programmed UART_1.c: 97: case 2:
   656                           	
   657  02B1                     l55:	
   658                           	line	98
   659                           	
   660  02B1                     l1746:	
   661                           ;Slave_Programmed UART_1.c: 98: data_to_read=uart_read(1);
   662  02B1  3001               	movlw	(01h)
   663  02B2  120A  118A  25E7   	fcall	_uart_read
              120A  118A         
   664  02B7  00FB               	movwf	(??_main+0)+0
   665  02B8  087B               	movf	(??_main+0)+0,w
   666  02B9  00FC               	movwf	(main@data_to_read)
   667                           	line	99
   668                           	
   669  02BA                     l1748:	
   670                           ;Slave_Programmed UART_1.c: 99: if(data_to_read==0)RA0=0;
   671  02BA  08FC               	movf	(main@data_to_read),f
   672  02BB  1D03               	skipz
   673  02BC  2ABE               	goto	u1331
   674  02BD  2ABF               	goto	u1330
   675  02BE                     u1331:
   676  02BE  2AC3               	goto	l56
   677  02BF                     u1330:
   678                           	
   679  02BF                     l1750:	
   680  02BF  1283               	bcf	status, 5	;RP0=0, select bank0
   681  02C0  1303               	bcf	status, 6	;RP1=0, select bank0
   682  02C1  1005               	bcf	(40/8),(40)&7	;volatile
   683  02C2  2AC7               	goto	l1752
   684                           	line	100
   685                           	
   686  02C3                     l56:	
   687                           ;Slave_Programmed UART_1.c: 100: else RA0=1;
   688  02C3  1283               	bcf	status, 5	;RP0=0, select bank0
   689  02C4  1303               	bcf	status, 6	;RP1=0, select bank0
   690  02C5  1405               	bsf	(40/8),(40)&7	;volatile
   691  02C6  2AC7               	goto	l1752
   692                           	
   693  02C7                     l57:	
   694                           	line	101
   695                           	
   696  02C7                     l1752:	
   697                           ;Slave_Programmed UART_1.c: 101: uart_write(1,'a');
   698  02C7  3061               	movlw	(061h)
   699  02C8  00FB               	movwf	(??_main+0)+0
   700  02C9  087B               	movf	(??_main+0)+0,w
   701  02CA  00F0               	movwf	(?_uart_write)
   702  02CB  3001               	movlw	(01h)
   703  02CC  120A  118A  23E7   	fcall	_uart_write
              120A  118A         
   704                           	line	102
   705                           ;Slave_Programmed UART_1.c: 102: break;
   706  02D1  2A86               	goto	l49
   707                           	line	104
   708                           ;Slave_Programmed UART_1.c: 104: case 3:
   709                           	
   710  02D2                     l58:	
   711                           	line	105
   712                           	
   713  02D2                     l1754:	
   714                           ;Slave_Programmed UART_1.c: 105: data_to_read=uart_read(1);
   715  02D2  3001               	movlw	(01h)
   716  02D3  120A  118A  25E7   	fcall	_uart_read
              120A  118A         
   717  02D8  00FB               	movwf	(??_main+0)+0
   718  02D9  087B               	movf	(??_main+0)+0,w
   719  02DA  00FC               	movwf	(main@data_to_read)
   720                           	line	106
   721                           	
   722  02DB                     l1756:	
   723                           ;Slave_Programmed UART_1.c: 106: if(data_to_read==0)RA5=0;
   724  02DB  08FC               	movf	(main@data_to_read),f
   725  02DC  1D03               	skipz
   726  02DD  2ADF               	goto	u1341
   727  02DE  2AE0               	goto	u1340
   728  02DF                     u1341:
   729  02DF  2AE4               	goto	l59
   730  02E0                     u1340:
   731                           	
   732  02E0                     l1758:	
   733  02E0  1283               	bcf	status, 5	;RP0=0, select bank0
   734  02E1  1303               	bcf	status, 6	;RP1=0, select bank0
   735  02E2  1285               	bcf	(45/8),(45)&7	;volatile
   736  02E3  2AE8               	goto	l1760
   737                           	line	107
   738                           	
   739  02E4                     l59:	
   740                           ;Slave_Programmed UART_1.c: 107: else RA5=1;
   741  02E4  1283               	bcf	status, 5	;RP0=0, select bank0
   742  02E5  1303               	bcf	status, 6	;RP1=0, select bank0
   743  02E6  1685               	bsf	(45/8),(45)&7	;volatile
   744  02E7  2AE8               	goto	l1760
   745                           	
   746  02E8                     l60:	
   747                           	line	108
   748                           	
   749  02E8                     l1760:	
   750                           ;Slave_Programmed UART_1.c: 108: uart_write(1,'a');
   751  02E8  3061               	movlw	(061h)
   752  02E9  00FB               	movwf	(??_main+0)+0
   753  02EA  087B               	movf	(??_main+0)+0,w
   754  02EB  00F0               	movwf	(?_uart_write)
   755  02EC  3001               	movlw	(01h)
   756  02ED  120A  118A  23E7   	fcall	_uart_write
              120A  118A         
   757                           	line	109
   758                           ;Slave_Programmed UART_1.c: 109: break;
   759  02F2  2A86               	goto	l49
   760                           	line	111
   761                           ;Slave_Programmed UART_1.c: 111: case 4:
   762                           	
   763  02F3                     l61:	
   764                           	line	112
   765                           	
   766  02F3                     l1762:	
   767                           ;Slave_Programmed UART_1.c: 112: data_to_read=uart_read(1);
   768  02F3  3001               	movlw	(01h)
   769  02F4  120A  118A  25E7   	fcall	_uart_read
              120A  118A         
   770  02F9  00FB               	movwf	(??_main+0)+0
   771  02FA  087B               	movf	(??_main+0)+0,w
   772  02FB  00FC               	movwf	(main@data_to_read)
   773                           	line	113
   774                           ;Slave_Programmed UART_1.c: 113: switch(data_to_read)
   775  02FC  2B49               	goto	l1778
   776                           	line	116
   777                           ;Slave_Programmed UART_1.c: 114: {
   778                           ;Slave_Programmed UART_1.c: 116: case 1:
   779                           	
   780  02FD                     l63:	
   781                           	line	117
   782                           ;Slave_Programmed UART_1.c: 117: if(RA2)uart_write(1,1);
   783  02FD  1283               	bcf	status, 5	;RP0=0, select bank0
   784  02FE  1303               	bcf	status, 6	;RP1=0, select bank0
   785  02FF  1D05               	btfss	(42/8),(42)&7	;volatile
   786  0300  2B02               	goto	u1351
   787  0301  2B03               	goto	u1350
   788  0302                     u1351:
   789  0302  2B0D               	goto	l1766
   790  0303                     u1350:
   791                           	
   792  0303                     l1764:	
   793  0303  01F0               	clrf	(?_uart_write)
   794  0304  1403               	bsf	status,0
   795  0305  0DF0               	rlf	(?_uart_write),f
   796  0306  3001               	movlw	(01h)
   797  0307  120A  118A  23E7   	fcall	_uart_write
              120A  118A         
   798  030C  2A86               	goto	l49
   799                           	line	118
   800                           	
   801  030D                     l64:	
   802                           	
   803  030D                     l1766:	
   804                           ;Slave_Programmed UART_1.c: 118: else uart_write(1,0);
   805  030D  01F0               	clrf	(?_uart_write)
   806  030E  3001               	movlw	(01h)
   807  030F  120A  118A  23E7   	fcall	_uart_write
              120A  118A         
   808  0314  2A86               	goto	l49
   809                           	
   810  0315                     l65:	
   811                           	line	119
   812                           ;Slave_Programmed UART_1.c: 119: break;
   813  0315  2A86               	goto	l49
   814                           	line	121
   815                           ;Slave_Programmed UART_1.c: 121: case 2:
   816                           	
   817  0316                     l67:	
   818                           	line	122
   819                           ;Slave_Programmed UART_1.c: 122: if(RA3)uart_write(1,1);
   820  0316  1283               	bcf	status, 5	;RP0=0, select bank0
   821  0317  1303               	bcf	status, 6	;RP1=0, select bank0
   822  0318  1D85               	btfss	(43/8),(43)&7	;volatile
   823  0319  2B1B               	goto	u1361
   824  031A  2B1C               	goto	u1360
   825  031B                     u1361:
   826  031B  2B26               	goto	l1770
   827  031C                     u1360:
   828                           	
   829  031C                     l1768:	
   830  031C  01F0               	clrf	(?_uart_write)
   831  031D  1403               	bsf	status,0
   832  031E  0DF0               	rlf	(?_uart_write),f
   833  031F  3001               	movlw	(01h)
   834  0320  120A  118A  23E7   	fcall	_uart_write
              120A  118A         
   835  0325  2A86               	goto	l49
   836                           	line	123
   837                           	
   838  0326                     l68:	
   839                           	
   840  0326                     l1770:	
   841                           ;Slave_Programmed UART_1.c: 123: else uart_write(1,0);
   842  0326  01F0               	clrf	(?_uart_write)
   843  0327  3001               	movlw	(01h)
   844  0328  120A  118A  23E7   	fcall	_uart_write
              120A  118A         
   845  032D  2A86               	goto	l49
   846                           	
   847  032E                     l69:	
   848                           	line	124
   849                           ;Slave_Programmed UART_1.c: 124: break;
   850  032E  2A86               	goto	l49
   851                           	line	126
   852                           ;Slave_Programmed UART_1.c: 126: case 3:
   853                           	
   854  032F                     l70:	
   855                           	line	127
   856                           ;Slave_Programmed UART_1.c: 127: if(RA4)uart_write(1,1);
   857  032F  1283               	bcf	status, 5	;RP0=0, select bank0
   858  0330  1303               	bcf	status, 6	;RP1=0, select bank0
   859  0331  1E05               	btfss	(44/8),(44)&7	;volatile
   860  0332  2B34               	goto	u1371
   861  0333  2B35               	goto	u1370
   862  0334                     u1371:
   863  0334  2B3F               	goto	l1774
   864  0335                     u1370:
   865                           	
   866  0335                     l1772:	
   867  0335  01F0               	clrf	(?_uart_write)
   868  0336  1403               	bsf	status,0
   869  0337  0DF0               	rlf	(?_uart_write),f
   870  0338  3001               	movlw	(01h)
   871  0339  120A  118A  23E7   	fcall	_uart_write
              120A  118A         
   872  033E  2A86               	goto	l49
   873                           	line	128
   874                           	
   875  033F                     l71:	
   876                           	
   877  033F                     l1774:	
   878                           ;Slave_Programmed UART_1.c: 128: else uart_write(1,0);
   879  033F  01F0               	clrf	(?_uart_write)
   880  0340  3001               	movlw	(01h)
   881  0341  120A  118A  23E7   	fcall	_uart_write
              120A  118A         
   882  0346  2A86               	goto	l49
   883                           	
   884  0347                     l72:	
   885                           	line	129
   886                           ;Slave_Programmed UART_1.c: 129: break;
   887  0347  2A86               	goto	l49
   888                           	line	130
   889                           	
   890  0348                     l1776:	
   891                           ;Slave_Programmed UART_1.c: 130: }
   892  0348  2A86               	goto	l49
   893                           	line	113
   894                           	
   895  0349                     l62:	
   896                           	
   897  0349                     l1778:	
   898  0349  087C               	movf	(main@data_to_read),w
   899                           	; Switch size 1, requested type "space"
   900                           ; Number of cases is 3, Range of values is 1 to 3
   901                           ; switch strategies available:
   902                           ; Name         Instructions Cycles
   903                           ; simple_byte           10     6 (average)
   904                           ; direct_byte           20    11 (fixed)
   905                           ; jumptable            263     9 (fixed)
   906                           ;	Chosen strategy is simple_byte
   907                           
   908                           	opt asmopt_off
   909  034A  3A01               	xorlw	1^0	; case 1
   910  034B  1903               	skipnz
   911  034C  2AFD               	goto	l63
   912  034D  3A03               	xorlw	2^1	; case 2
   913  034E  1903               	skipnz
   914  034F  2B16               	goto	l67
   915  0350  3A01               	xorlw	3^2	; case 3
   916  0351  1903               	skipnz
   917  0352  2B2F               	goto	l70
   918  0353  2A86               	goto	l49
   919                           	opt asmopt_on
   920                           
   921                           	line	130
   922                           	
   923  0354                     l66:	
   924                           	line	131
   925                           ;Slave_Programmed UART_1.c: 131: break;
   926  0354  2A86               	goto	l49
   927                           	line	133
   928                           ;Slave_Programmed UART_1.c: 133: case 5:
   929                           	
   930  0355                     l73:	
   931                           	line	134
   932                           	
   933  0355                     l1780:	
   934                           ;Slave_Programmed UART_1.c: 134: data_to_read=uart_read(1);
   935  0355  3001               	movlw	(01h)
   936  0356  120A  118A  25E7   	fcall	_uart_read
              120A  118A         
   937  035B  00FB               	movwf	(??_main+0)+0
   938  035C  087B               	movf	(??_main+0)+0,w
   939  035D  00FC               	movwf	(main@data_to_read)
   940                           	line	135
   941                           	
   942  035E                     l1782:	
   943                           ;Slave_Programmed UART_1.c: 135: lcd_clr();
   944  035E  120A  118A  20EB   	fcall	_lcd_clr
              120A  118A         
   945                           	line	136
   946                           	
   947  0363                     l1784:	
   948                           ;Slave_Programmed UART_1.c: 136: k=0;
   949  0363  1283               	bcf	status, 5	;RP0=0, select bank0
   950  0364  1303               	bcf	status, 6	;RP1=0, select bank0
   951  0365  01A0               	clrf	(_k)
   952  0366  01A1               	clrf	(_k+1)
   953                           	line	137
   954                           	
   955  0367                     l1786:	
   956                           ;Slave_Programmed UART_1.c: 137: m=0;
   957  0367  01A2               	clrf	(_m)
   958  0368  01A3               	clrf	(_m+1)
   959                           	line	138
   960                           	
   961  0369                     l1788:	
   962                           ;Slave_Programmed UART_1.c: 138: uart_write(1,'a');
   963  0369  3061               	movlw	(061h)
   964  036A  00FB               	movwf	(??_main+0)+0
   965  036B  087B               	movf	(??_main+0)+0,w
   966  036C  00F0               	movwf	(?_uart_write)
   967  036D  3001               	movlw	(01h)
   968  036E  120A  118A  23E7   	fcall	_uart_write
              120A  118A         
   969                           	line	139
   970                           ;Slave_Programmed UART_1.c: 139: break;
   971  0373  2A86               	goto	l49
   972                           	line	141
   973                           ;Slave_Programmed UART_1.c: 141: case 6:
   974                           	
   975  0374                     l74:	
   976                           	line	142
   977                           	
   978  0374                     l1790:	
   979                           ;Slave_Programmed UART_1.c: 142: data_to_read=uart_read(1);
   980  0374  3001               	movlw	(01h)
   981  0375  120A  118A  25E7   	fcall	_uart_read
              120A  118A         
   982  037A  00FB               	movwf	(??_main+0)+0
   983  037B  087B               	movf	(??_main+0)+0,w
   984  037C  00FC               	movwf	(main@data_to_read)
   985                           	line	143
   986                           	
   987  037D                     l1792:	
   988                           ;Slave_Programmed UART_1.c: 143: if (k>15)
   989  037D  1283               	bcf	status, 5	;RP0=0, select bank0
   990  037E  1303               	bcf	status, 6	;RP1=0, select bank0
   991  037F  0821               	movf	(_k+1),w
   992  0380  3A80               	xorlw	80h
   993  0381  00FF               	movwf	btemp+1
   994  0382  3080               	movlw	(high(010h))^80h
   995  0383  027F               	subwf	btemp+1,w
   996  0384  1D03               	skipz
   997  0385  2B88               	goto	u1385
   998  0386  3010               	movlw	low(010h)
   999  0387  0220               	subwf	(_k),w
  1000  0388                     u1385:
  1001                           
  1002  0388  1C03               	skipc
  1003  0389  2B8B               	goto	u1381
  1004  038A  2B8C               	goto	u1380
  1005  038B                     u1381:
  1006  038B  2BAA               	goto	l1800
  1007  038C                     u1380:
  1008                           	line	144
  1009                           	
  1010  038C                     l1794:	
  1011                           ;Slave_Programmed UART_1.c: 144: {send_config(0xc0+m);
  1012  038C  1283               	bcf	status, 5	;RP0=0, select bank0
  1013  038D  1303               	bcf	status, 6	;RP1=0, select bank0
  1014  038E  0822               	movf	(_m),w
  1015  038F  3EC0               	addlw	0C0h
  1016  0390  120A  118A  2141   	fcall	_send_config
              120A  118A         
  1017                           	line	145
  1018                           ;Slave_Programmed UART_1.c: 145: send_char(data_to_read);
  1019  0395  087C               	movf	(main@data_to_read),w
  1020  0396  120A  118A  211C   	fcall	_send_char
              120A  118A         
  1021                           	line	146
  1022                           	
  1023  039B                     l1796:	
  1024                           ;Slave_Programmed UART_1.c: 146: m++;
  1025  039B  3001               	movlw	low(01h)
  1026  039C  1283               	bcf	status, 5	;RP0=0, select bank0
  1027  039D  1303               	bcf	status, 6	;RP1=0, select bank0
  1028  039E  07A2               	addwf	(_m),f
  1029  039F  1803               	skipnc
  1030  03A0  0AA3               	incf	(_m+1),f
  1031  03A1  3000               	movlw	high(01h)
  1032  03A2  07A3               	addwf	(_m+1),f
  1033                           	line	147
  1034                           	
  1035  03A3                     l1798:	
  1036                           ;Slave_Programmed UART_1.c: 147: k++;
  1037  03A3  3001               	movlw	low(01h)
  1038  03A4  07A0               	addwf	(_k),f
  1039  03A5  1803               	skipnc
  1040  03A6  0AA1               	incf	(_k+1),f
  1041  03A7  3000               	movlw	high(01h)
  1042  03A8  07A1               	addwf	(_k+1),f
  1043                           	line	148
  1044                           ;Slave_Programmed UART_1.c: 148: }
  1045  03A9  2BC2               	goto	l1804
  1046                           	line	149
  1047                           	
  1048  03AA                     l75:	
  1049                           	line	150
  1050                           	
  1051  03AA                     l1800:	
  1052                           ;Slave_Programmed UART_1.c: 149: else
  1053                           ;Slave_Programmed UART_1.c: 150: {send_config(0x80+k);
  1054  03AA  1283               	bcf	status, 5	;RP0=0, select bank0
  1055  03AB  1303               	bcf	status, 6	;RP1=0, select bank0
  1056  03AC  0820               	movf	(_k),w
  1057  03AD  3E80               	addlw	080h
  1058  03AE  120A  118A  2141   	fcall	_send_config
              120A  118A         
  1059                           	line	151
  1060                           ;Slave_Programmed UART_1.c: 151: send_char(data_to_read);
  1061  03B3  087C               	movf	(main@data_to_read),w
  1062  03B4  120A  118A  211C   	fcall	_send_char
              120A  118A         
  1063                           	line	152
  1064                           	
  1065  03B9                     l1802:	
  1066                           ;Slave_Programmed UART_1.c: 152: k++;
  1067  03B9  3001               	movlw	low(01h)
  1068  03BA  1283               	bcf	status, 5	;RP0=0, select bank0
  1069  03BB  1303               	bcf	status, 6	;RP1=0, select bank0
  1070  03BC  07A0               	addwf	(_k),f
  1071  03BD  1803               	skipnc
  1072  03BE  0AA1               	incf	(_k+1),f
  1073  03BF  3000               	movlw	high(01h)
  1074  03C0  07A1               	addwf	(_k+1),f
  1075  03C1  2BC2               	goto	l1804
  1076                           	line	153
  1077                           	
  1078  03C2                     l76:	
  1079                           	line	154
  1080                           	
  1081  03C2                     l1804:	
  1082                           ;Slave_Programmed UART_1.c: 153: }
  1083                           ;Slave_Programmed UART_1.c: 154: uart_write(1,'a');
  1084  03C2  3061               	movlw	(061h)
  1085  03C3  00FB               	movwf	(??_main+0)+0
  1086  03C4  087B               	movf	(??_main+0)+0,w
  1087  03C5  00F0               	movwf	(?_uart_write)
  1088  03C6  3001               	movlw	(01h)
  1089  03C7  120A  118A  23E7   	fcall	_uart_write
              120A  118A         
  1090                           	line	155
  1091                           ;Slave_Programmed UART_1.c: 155: break;
  1092  03CC  2A86               	goto	l49
  1093                           	line	156
  1094                           	
  1095  03CD                     l1806:	
  1096                           ;Slave_Programmed UART_1.c: 156: }
  1097  03CD  2A86               	goto	l49
  1098                           	line	88
  1099                           	
  1100  03CE                     l50:	
  1101                           	
  1102  03CE                     l1808:	
  1103  03CE  087C               	movf	(main@data_to_read),w
  1104                           	; Switch size 1, requested type "space"
  1105                           ; Number of cases is 6, Range of values is 1 to 6
  1106                           ; switch strategies available:
  1107                           ; Name         Instructions Cycles
  1108                           ; simple_byte           19    10 (average)
  1109                           ; direct_byte           29    11 (fixed)
  1110                           ; jumptable            263     9 (fixed)
  1111                           ;	Chosen strategy is simple_byte
  1112                           
  1113                           	opt asmopt_off
  1114  03CF  3A01               	xorlw	1^0	; case 1
  1115  03D0  1903               	skipnz
  1116  03D1  2A90               	goto	l1738
  1117  03D2  3A03               	xorlw	2^1	; case 2
  1118  03D3  1903               	skipnz
  1119  03D4  2AB1               	goto	l1746
  1120  03D5  3A01               	xorlw	3^2	; case 3
  1121  03D6  1903               	skipnz
  1122  03D7  2AD2               	goto	l1754
  1123  03D8  3A07               	xorlw	4^3	; case 4
  1124  03D9  1903               	skipnz
  1125  03DA  2AF3               	goto	l1762
  1126  03DB  3A01               	xorlw	5^4	; case 5
  1127  03DC  1903               	skipnz
  1128  03DD  2B55               	goto	l1780
  1129  03DE  3A03               	xorlw	6^5	; case 6
  1130  03DF  1903               	skipnz
  1131  03E0  2B74               	goto	l1790
  1132  03E1  2A86               	goto	l49
  1133                           	opt asmopt_on
  1134                           
  1135                           	line	156
  1136                           	
  1137  03E2                     l54:	
  1138  03E2  2A86               	goto	l49
  1139                           	line	157
  1140                           	
  1141  03E3                     l77:	
  1142                           	line	84
  1143  03E3  2A86               	goto	l49
  1144                           	
  1145  03E4                     l78:	
  1146                           	line	158
  1147                           	
  1148  03E4                     l79:	
  1149                           	global	start
  1150  03E4  120A  118A  2800   	ljmp	start
  1151                           	opt stack 0
  1152                           GLOBAL	__end_of_main
  1153  03E7                     	__end_of_main:
  1154                           	signat	_main,88
  1155                           	global	_lcd_clr
  1156                           
  1157 ;; *************** function _lcd_clr *****************
  1158 ;; Defined at:
  1159 ;;		line 187 in file "Slave_Programmed UART_1.c"
  1160 ;; Parameters:    Size  Location     Type
  1161 ;;		None
  1162 ;; Auto vars:     Size  Location     Type
  1163 ;;		None
  1164 ;; Return value:  Size  Location     Type
  1165 ;;		None               void
  1166 ;; Registers used:
  1167 ;;		wreg, status,2, status,0, pclath, cstack
  1168 ;; Tracked objects:
  1169 ;;		On entry : 0/0
  1170 ;;		On exit  : 0/0
  1171 ;;		Unchanged: 0/0
  1172 ;; Data sizes:     COMMON   BANK0   BANK1   BANK3   BANK2
  1173 ;;      Params:         0       0       0       0       0
  1174 ;;      Locals:         0       0       0       0       0
  1175 ;;      Temps:          0       0       0       0       0
  1176 ;;      Totals:         0       0       0       0       0
  1177 ;;Total ram usage:        0 bytes
  1178 ;; Hardware stack levels used:    1
  1179 ;; Hardware stack levels required when called:    2
  1180 ;; This function calls:
  1181 ;;		_send_config
  1182 ;;		_delay
  1183 ;; This function is called by:
  1184 ;;		_main
  1185 ;; This function uses a non-reentrant model
  1186 ;;
  1187                           psect	text193,local,class=CODE,delta=2,merge=1
  1188                           global __ptext193
  1189  00EB                     __ptext193:
  1190                           psect	text193
  1191                           	file	"Slave_Programmed UART_1.c"
  1192                           	line	187
  1193                           	global	__size_of_lcd_clr
  1194  0014                     	__size_of_lcd_clr	equ	__end_of_lcd_clr-_lcd_clr
  1195                           	
  1196  00EB                     _lcd_clr:	
  1197                           	opt	stack 5
  1198                           ; Regs used in _lcd_clr: [wreg+status,2+status,0+pclath+cstack]
  1199                           	line	188
  1200                           	
  1201  00EB                     l1688:	
  1202                           ;Slave_Programmed UART_1.c: 188: send_config(0x01);
  1203  00EB  3001               	movlw	(01h)
  1204  00EC  120A  118A  2141   	fcall	_send_config
              120A  118A         
  1205                           	line	189
  1206                           ;Slave_Programmed UART_1.c: 189: delay(600);
  1207  00F1  3000               	movlw	0
  1208  00F2  00F3               	movwf	(?_delay+3)
  1209  00F3  3000               	movlw	0
  1210  00F4  00F2               	movwf	(?_delay+2)
  1211  00F5  3002               	movlw	02h
  1212  00F6  00F1               	movwf	(?_delay+1)
  1213  00F7  3058               	movlw	058h
  1214  00F8  00F0               	movwf	(?_delay)
  1215                           
  1216  00F9  120A  118A  218C   	fcall	_delay
              120A  118A         
  1217                           	line	190
  1218                           	
  1219  00FE                     l93:	
  1220  00FE  0008               	return
  1221                           	opt stack 0
  1222                           GLOBAL	__end_of_lcd_clr
  1223  00FF                     	__end_of_lcd_clr:
  1224                           	signat	_lcd_clr,88
  1225                           	global	_lcd_goto
  1226                           
  1227 ;; *************** function _lcd_goto *****************
  1228 ;; Defined at:
  1229 ;;		line 198 in file "Slave_Programmed UART_1.c"
  1230 ;; Parameters:    Size  Location     Type
  1231 ;;  data            1    wreg     unsigned char 
  1232 ;; Auto vars:     Size  Location     Type
  1233 ;;  data            1   10[COMMON] unsigned char 
  1234 ;; Return value:  Size  Location     Type
  1235 ;;		None               void
  1236 ;; Registers used:
  1237 ;;		wreg, status,2, status,0, pclath, cstack
  1238 ;; Tracked objects:
  1239 ;;		On entry : 0/0
  1240 ;;		On exit  : 0/0
  1241 ;;		Unchanged: 0/0
  1242 ;; Data sizes:     COMMON   BANK0   BANK1   BANK3   BANK2
  1243 ;;      Params:         0       0       0       0       0
  1244 ;;      Locals:         1       0       0       0       0
  1245 ;;      Temps:          1       0       0       0       0
  1246 ;;      Totals:         2       0       0       0       0
  1247 ;;Total ram usage:        2 bytes
  1248 ;; Hardware stack levels used:    1
  1249 ;; Hardware stack levels required when called:    2
  1250 ;; This function calls:
  1251 ;;		_send_config
  1252 ;; This function is called by:
  1253 ;;		_main
  1254 ;; This function uses a non-reentrant model
  1255 ;;
  1256                           psect	text194,local,class=CODE,delta=2,merge=1
  1257                           global __ptext194
  1258  00FF                     __ptext194:
  1259                           psect	text194
  1260                           	file	"Slave_Programmed UART_1.c"
  1261                           	line	198
  1262                           	global	__size_of_lcd_goto
  1263  001D                     	__size_of_lcd_goto	equ	__end_of_lcd_goto-_lcd_goto
  1264                           	
  1265  00FF                     _lcd_goto:	
  1266                           	opt	stack 5
  1267                           ; Regs used in _lcd_goto: [wreg+status,2+status,0+pclath+cstack]
  1268                           ;lcd_goto@data stored from wreg
  1269  00FF  00FA               	movwf	(lcd_goto@data)
  1270                           	line	199
  1271                           	
  1272  0100                     l1690:	
  1273                           ;Slave_Programmed UART_1.c: 199: if(data<16)
  1274  0100  3010               	movlw	(010h)
  1275  0101  027A               	subwf	(lcd_goto@data),w
  1276  0102  1803               	skipnc
  1277  0103  2905               	goto	u1291
  1278  0104  2906               	goto	u1290
  1279  0105                     u1291:
  1280  0105  290E               	goto	l1694
  1281  0106                     u1290:
  1282                           	line	201
  1283                           	
  1284  0106                     l1692:	
  1285                           ;Slave_Programmed UART_1.c: 200: {
  1286                           ;Slave_Programmed UART_1.c: 201: send_config(0x80+data);
  1287  0106  087A               	movf	(lcd_goto@data),w
  1288  0107  3E80               	addlw	080h
  1289  0108  120A  118A  2141   	fcall	_send_config
              120A  118A         
  1290                           	line	202
  1291                           ;Slave_Programmed UART_1.c: 202: }
  1292  010D  291B               	goto	l106
  1293                           	line	203
  1294                           	
  1295  010E                     l104:	
  1296                           	line	205
  1297                           	
  1298  010E                     l1694:	
  1299                           ;Slave_Programmed UART_1.c: 203: else
  1300                           ;Slave_Programmed UART_1.c: 204: {
  1301                           ;Slave_Programmed UART_1.c: 205: data=data-20;
  1302  010E  087A               	movf	(lcd_goto@data),w
  1303  010F  3EEC               	addlw	0ECh
  1304  0110  00F9               	movwf	(??_lcd_goto+0)+0
  1305  0111  0879               	movf	(??_lcd_goto+0)+0,w
  1306  0112  00FA               	movwf	(lcd_goto@data)
  1307                           	line	206
  1308                           	
  1309  0113                     l1696:	
  1310                           ;Slave_Programmed UART_1.c: 206: send_config(0xc0+data);
  1311  0113  087A               	movf	(lcd_goto@data),w
  1312  0114  3EC0               	addlw	0C0h
  1313  0115  120A  118A  2141   	fcall	_send_config
              120A  118A         
  1314  011A  291B               	goto	l106
  1315                           	line	207
  1316                           	
  1317  011B                     l105:	
  1318                           	line	208
  1319                           	
  1320  011B                     l106:	
  1321  011B  0008               	return
  1322                           	opt stack 0
  1323                           GLOBAL	__end_of_lcd_goto
  1324  011C                     	__end_of_lcd_goto:
  1325                           	signat	_lcd_goto,4216
  1326                           	global	_send_config
  1327                           
  1328 ;; *************** function _send_config *****************
  1329 ;; Defined at:
  1330 ;;		line 166 in file "Slave_Programmed UART_1.c"
  1331 ;; Parameters:    Size  Location     Type
  1332 ;;  data            1    wreg     unsigned char 
  1333 ;; Auto vars:     Size  Location     Type
  1334 ;;  data            1    8[COMMON] unsigned char 
  1335 ;; Return value:  Size  Location     Type
  1336 ;;		None               void
  1337 ;; Registers used:
  1338 ;;		wreg, status,2, status,0, pclath, cstack
  1339 ;; Tracked objects:
  1340 ;;		On entry : 0/0
  1341 ;;		On exit  : 0/0
  1342 ;;		Unchanged: 0/0
  1343 ;; Data sizes:     COMMON   BANK0   BANK1   BANK3   BANK2
  1344 ;;      Params:         0       0       0       0       0
  1345 ;;      Locals:         1       0       0       0       0
  1346 ;;      Temps:          0       0       0       0       0
  1347 ;;      Totals:         1       0       0       0       0
  1348 ;;Total ram usage:        1 bytes
  1349 ;; Hardware stack levels used:    1
  1350 ;; Hardware stack levels required when called:    1
  1351 ;; This function calls:
  1352 ;;		_delay
  1353 ;; This function is called by:
  1354 ;;		_main
  1355 ;;		_lcd_clr
  1356 ;;		_lcd_goto
  1357 ;; This function uses a non-reentrant model
  1358 ;;
  1359                           psect	text195,local,class=CODE,delta=2,merge=1
  1360                           global __ptext195
  1361  0141                     __ptext195:
  1362                           psect	text195
  1363                           	file	"Slave_Programmed UART_1.c"
  1364                           	line	166
  1365                           	global	__size_of_send_config
  1366  0025                     	__size_of_send_config	equ	__end_of_send_config-_send_config
  1367                           	
  1368  0141                     _send_config:	
  1369                           	opt	stack 5
  1370                           ; Regs used in _send_config: [wreg+status,2+status,0+pclath+cstack]
  1371                           ;send_config@data stored from wreg
  1372  0141  00F8               	movwf	(send_config@data)
  1373                           	line	167
  1374                           	
  1375  0142                     l1296:	
  1376                           ;Slave_Programmed UART_1.c: 167: RC4=0;
  1377  0142  1283               	bcf	status, 5	;RP0=0, select bank0
  1378  0143  1303               	bcf	status, 6	;RP1=0, select bank0
  1379  0144  1207               	bcf	(60/8),(60)&7	;volatile
  1380                           	line	168
  1381                           	
  1382  0145                     l1298:	
  1383                           ;Slave_Programmed UART_1.c: 168: PORTB=data;
  1384  0145  0878               	movf	(send_config@data),w
  1385  0146  0086               	movwf	(6)	;volatile
  1386                           	line	169
  1387                           	
  1388  0147                     l1300:	
  1389                           ;Slave_Programmed UART_1.c: 169: RC5=1;
  1390  0147  1687               	bsf	(61/8),(61)&7	;volatile
  1391                           	line	170
  1392                           	
  1393  0148                     l1302:	
  1394                           ;Slave_Programmed UART_1.c: 170: delay(50);
  1395  0148  3000               	movlw	0
  1396  0149  00F3               	movwf	(?_delay+3)
  1397  014A  3000               	movlw	0
  1398  014B  00F2               	movwf	(?_delay+2)
  1399  014C  3000               	movlw	0
  1400  014D  00F1               	movwf	(?_delay+1)
  1401  014E  3032               	movlw	032h
  1402  014F  00F0               	movwf	(?_delay)
  1403                           
  1404  0150  120A  118A  218C   	fcall	_delay
              120A  118A         
  1405                           	line	171
  1406                           	
  1407  0155                     l1304:	
  1408                           ;Slave_Programmed UART_1.c: 171: RC5=0;
  1409  0155  1283               	bcf	status, 5	;RP0=0, select bank0
  1410  0156  1303               	bcf	status, 6	;RP1=0, select bank0
  1411  0157  1287               	bcf	(61/8),(61)&7	;volatile
  1412                           	line	172
  1413                           	
  1414  0158                     l1306:	
  1415                           ;Slave_Programmed UART_1.c: 172: delay(50);
  1416  0158  3000               	movlw	0
  1417  0159  00F3               	movwf	(?_delay+3)
  1418  015A  3000               	movlw	0
  1419  015B  00F2               	movwf	(?_delay+2)
  1420  015C  3000               	movlw	0
  1421  015D  00F1               	movwf	(?_delay+1)
  1422  015E  3032               	movlw	032h
  1423  015F  00F0               	movwf	(?_delay)
  1424                           
  1425  0160  120A  118A  218C   	fcall	_delay
              120A  118A         
  1426                           	line	174
  1427                           	
  1428  0165                     l87:	
  1429  0165  0008               	return
  1430                           	opt stack 0
  1431                           GLOBAL	__end_of_send_config
  1432  0166                     	__end_of_send_config:
  1433                           	signat	_send_config,4216
  1434                           	global	_send_string
  1435                           
  1436 ;; *************** function _send_string *****************
  1437 ;; Defined at:
  1438 ;;		line 193 in file "Slave_Programmed UART_1.c"
  1439 ;; Parameters:    Size  Location     Type
  1440 ;;  s               1    wreg     PTR const unsigned char 
  1441 ;;		 -> STR_2(13), STR_1(12), 
  1442 ;; Auto vars:     Size  Location     Type
  1443 ;;  s               1   10[COMMON] PTR const unsigned char 
  1444 ;;		 -> STR_2(13), STR_1(12), 
  1445 ;; Return value:  Size  Location     Type
  1446 ;;		None               void
  1447 ;; Registers used:
  1448 ;;		wreg, fsr0l, fsr0h, status,2, status,0, pclath, cstack
  1449 ;; Tracked objects:
  1450 ;;		On entry : 0/0
  1451 ;;		On exit  : 0/0
  1452 ;;		Unchanged: 0/0
  1453 ;; Data sizes:     COMMON   BANK0   BANK1   BANK3   BANK2
  1454 ;;      Params:         0       0       0       0       0
  1455 ;;      Locals:         1       0       0       0       0
  1456 ;;      Temps:          1       0       0       0       0
  1457 ;;      Totals:         2       0       0       0       0
  1458 ;;Total ram usage:        2 bytes
  1459 ;; Hardware stack levels used:    1
  1460 ;; Hardware stack levels required when called:    2
  1461 ;; This function calls:
  1462 ;;		_send_char
  1463 ;; This function is called by:
  1464 ;;		_main
  1465 ;; This function uses a non-reentrant model
  1466 ;;
  1467                           psect	text196,local,class=CODE,delta=2,merge=1
  1468                           global __ptext196
  1469  0166                     __ptext196:
  1470                           psect	text196
  1471                           	file	"Slave_Programmed UART_1.c"
  1472                           	line	193
  1473                           	global	__size_of_send_string
  1474  0026                     	__size_of_send_string	equ	__end_of_send_string-_send_string
  1475                           	
  1476  0166                     _send_string:	
  1477                           	opt	stack 5
  1478                           ; Regs used in _send_string: [wreg-fsr0h+status,2+status,0+pclath+cstack]
  1479                           ;send_string@s stored from wreg
  1480  0166  00FA               	movwf	(send_string@s)
  1481                           	line	194
  1482                           	
  1483  0167                     l1698:	
  1484                           ;Slave_Programmed UART_1.c: 194: while (s && *s)send_char (*s++);
  1485  0167  2979               	goto	l1704
  1486                           	
  1487  0168                     l97:	
  1488                           	
  1489  0168                     l1700:	
  1490  0168  087A               	movf	(send_string@s),w
  1491  0169  0084               	movwf	fsr0
  1492  016A  120A  118A  2003   	fcall	stringdir
              120A  118A         
  1493  016F  120A  118A  211C   	fcall	_send_char
              120A  118A         
  1494                           	
  1495  0174                     l1702:	
  1496  0174  3001               	movlw	(01h)
  1497  0175  00F9               	movwf	(??_send_string+0)+0
  1498  0176  0879               	movf	(??_send_string+0)+0,w
  1499  0177  07FA               	addwf	(send_string@s),f
  1500  0178  2979               	goto	l1704
  1501                           	
  1502  0179                     l96:	
  1503                           	
  1504  0179                     l1704:	
  1505  0179  087A               	movf	(send_string@s),w
  1506  017A  1D03               	skipz
  1507  017B  297D               	goto	u1300
  1508  017C  298B               	goto	l101
  1509  017D                     u1300:
  1510                           	
  1511  017D                     l1706:	
  1512  017D  087A               	movf	(send_string@s),w
  1513  017E  0084               	movwf	fsr0
  1514  017F  120A  118A  2003   	fcall	stringdir
              120A  118A         
  1515  0184  3800               	iorlw	0
  1516  0185  1D03               	skipz
  1517  0186  2988               	goto	u1311
  1518  0187  2989               	goto	u1310
  1519  0188                     u1311:
  1520  0188  2968               	goto	l1700
  1521  0189                     u1310:
  1522  0189  298B               	goto	l101
  1523                           	
  1524  018A                     l99:	
  1525  018A  298B               	goto	l101
  1526                           	
  1527  018B                     l100:	
  1528                           	line	195
  1529                           	
  1530  018B                     l101:	
  1531  018B  0008               	return
  1532                           	opt stack 0
  1533                           GLOBAL	__end_of_send_string
  1534  018C                     	__end_of_send_string:
  1535                           	signat	_send_string,4216
  1536                           	global	_uart_init
  1537                           
  1538 ;; *************** function _uart_init *****************
  1539 ;; Defined at:
  1540 ;;		line 156 in file "uart_io.c"
  1541 ;; Parameters:    Size  Location     Type
  1542 ;;  channel         1    wreg     unsigned char 
  1543 ;; Auto vars:     Size  Location     Type
  1544 ;;  channel         1    0[COMMON] unsigned char 
  1545 ;; Return value:  Size  Location     Type
  1546 ;;		None               void
  1547 ;; Registers used:
  1548 ;;		wreg, fsr0l, fsr0h, status,2, status,0
  1549 ;; Tracked objects:
  1550 ;;		On entry : 0/0
  1551 ;;		On exit  : 0/0
  1552 ;;		Unchanged: 0/0
  1553 ;; Data sizes:     COMMON   BANK0   BANK1   BANK3   BANK2
  1554 ;;      Params:         0       0       0       0       0
  1555 ;;      Locals:         1       0       0       0       0
  1556 ;;      Temps:          0       0       0       0       0
  1557 ;;      Totals:         1       0       0       0       0
  1558 ;;Total ram usage:        1 bytes
  1559 ;; Hardware stack levels used:    1
  1560 ;; This function calls:
  1561 ;;		Nothing
  1562 ;; This function is called by:
  1563 ;;		_main
  1564 ;; This function uses a non-reentrant model
  1565 ;;
  1566                           psect	text197,local,class=CODE,delta=2,merge=1
  1567                           global __ptext197
  1568  01BC                     __ptext197:
  1569                           psect	text197
  1570                           	file	"uart_io.c"
  1571                           	line	156
  1572                           	global	__size_of_uart_init
  1573  007A                     	__size_of_uart_init	equ	__end_of_uart_init-_uart_init
  1574                           	
  1575  01BC                     _uart_init:	
  1576                           	opt	stack 7
  1577                           ; Regs used in _uart_init: [wreg-fsr0h+status,2+status,0]
  1578                           ;uart_init@channel stored from wreg
  1579  01BC  00F0               	movwf	(uart_init@channel)
  1580                           	line	157
  1581                           	
  1582  01BD                     l1260:	
  1583                           ;uart_io.c: 157: switch(channel)
  1584  01BD  2A1B               	goto	l1288
  1585                           	line	159
  1586                           ;uart_io.c: 158: {
  1587                           ;uart_io.c: 159: case 1:
  1588                           	
  1589  01BE                     l130:	
  1590                           	line	160
  1591                           ;uart_io.c: 160: RC2=1;
  1592  01BE  1283               	bcf	status, 5	;RP0=0, select bank0
  1593  01BF  1303               	bcf	status, 6	;RP1=0, select bank0
  1594  01C0  1507               	bsf	(58/8),(58)&7	;volatile
  1595                           	line	161
  1596                           ;uart_io.c: 161: TRISC2=0;
  1597  01C1  1683               	bsf	status, 5	;RP0=1, select bank1
  1598  01C2  1303               	bcf	status, 6	;RP1=0, select bank1
  1599  01C3  1107               	bcf	(1082/8)^080h,(1082)&7	;volatile
  1600                           	line	162
  1601                           ;uart_io.c: 162: RC3=1;
  1602  01C4  1283               	bcf	status, 5	;RP0=0, select bank0
  1603  01C5  1303               	bcf	status, 6	;RP1=0, select bank0
  1604  01C6  1587               	bsf	(59/8),(59)&7	;volatile
  1605                           	line	163
  1606                           ;uart_io.c: 163: TRISC3=1;
  1607  01C7  1683               	bsf	status, 5	;RP0=1, select bank1
  1608  01C8  1303               	bcf	status, 6	;RP1=0, select bank1
  1609  01C9  1587               	bsf	(1083/8)^080h,(1083)&7	;volatile
  1610                           	line	164
  1611                           ;uart_io.c: 164: break;
  1612  01CA  2A35               	goto	l139
  1613                           	line	165
  1614                           ;uart_io.c: 165: case 2:
  1615                           	
  1616  01CB                     l132:	
  1617                           	line	166
  1618                           ;uart_io.c: 166: RC0=1;
  1619  01CB  1283               	bcf	status, 5	;RP0=0, select bank0
  1620  01CC  1303               	bcf	status, 6	;RP1=0, select bank0
  1621  01CD  1407               	bsf	(56/8),(56)&7	;volatile
  1622                           	line	167
  1623                           ;uart_io.c: 167: TRISC0=0;
  1624  01CE  1683               	bsf	status, 5	;RP0=1, select bank1
  1625  01CF  1303               	bcf	status, 6	;RP1=0, select bank1
  1626  01D0  1007               	bcf	(1080/8)^080h,(1080)&7	;volatile
  1627                           	line	168
  1628                           ;uart_io.c: 168: RC1=1;
  1629  01D1  1283               	bcf	status, 5	;RP0=0, select bank0
  1630  01D2  1303               	bcf	status, 6	;RP1=0, select bank0
  1631  01D3  1487               	bsf	(57/8),(57)&7	;volatile
  1632                           	line	169
  1633                           ;uart_io.c: 169: TRISC1=1;
  1634  01D4  1683               	bsf	status, 5	;RP0=1, select bank1
  1635  01D5  1303               	bcf	status, 6	;RP1=0, select bank1
  1636  01D6  1487               	bsf	(1081/8)^080h,(1081)&7	;volatile
  1637                           	line	170
  1638                           ;uart_io.c: 170: break;
  1639  01D7  2A35               	goto	l139
  1640                           	line	171
  1641                           ;uart_io.c: 171: case 3:
  1642                           	
  1643  01D8                     l133:	
  1644                           	line	172
  1645                           	
  1646  01D8                     l1262:	
  1647                           ;uart_io.c: 172: dummy_byte=1;
  1648  01D8  01FD               	clrf	(_dummy_byte)
  1649  01D9  1403               	bsf	status,0
  1650  01DA  0DFD               	rlf	(_dummy_byte),f
  1651                           	line	173
  1652                           	
  1653  01DB                     l1264:	
  1654                           ;uart_io.c: 173: dummy_byte=0;
  1655  01DB  01FD               	clrf	(_dummy_byte)
  1656                           	line	174
  1657                           ;uart_io.c: 174: dummy_byte=1;
  1658  01DC  01FD               	clrf	(_dummy_byte)
  1659  01DD  1403               	bsf	status,0
  1660  01DE  0DFD               	rlf	(_dummy_byte),f
  1661                           	line	175
  1662                           ;uart_io.c: 175: dummy_byte=1;
  1663  01DF  01FD               	clrf	(_dummy_byte)
  1664  01E0  1403               	bsf	status,0
  1665  01E1  0DFD               	rlf	(_dummy_byte),f
  1666                           	line	176
  1667                           ;uart_io.c: 176: break;
  1668  01E2  2A35               	goto	l139
  1669                           	line	177
  1670                           ;uart_io.c: 177: case 4:
  1671                           	
  1672  01E3                     l134:	
  1673                           	line	178
  1674                           	
  1675  01E3                     l1266:	
  1676                           ;uart_io.c: 178: dummy_byte=1;
  1677  01E3  01FD               	clrf	(_dummy_byte)
  1678  01E4  1403               	bsf	status,0
  1679  01E5  0DFD               	rlf	(_dummy_byte),f
  1680                           	line	179
  1681                           	
  1682  01E6                     l1268:	
  1683                           ;uart_io.c: 179: dummy_byte=0;
  1684  01E6  01FD               	clrf	(_dummy_byte)
  1685                           	line	180
  1686                           ;uart_io.c: 180: dummy_byte=1;
  1687  01E7  01FD               	clrf	(_dummy_byte)
  1688  01E8  1403               	bsf	status,0
  1689  01E9  0DFD               	rlf	(_dummy_byte),f
  1690                           	line	181
  1691                           ;uart_io.c: 181: dummy_byte=1;
  1692  01EA  01FD               	clrf	(_dummy_byte)
  1693  01EB  1403               	bsf	status,0
  1694  01EC  0DFD               	rlf	(_dummy_byte),f
  1695                           	line	182
  1696                           ;uart_io.c: 182: break;
  1697  01ED  2A35               	goto	l139
  1698                           	line	183
  1699                           ;uart_io.c: 183: case 5:
  1700                           	
  1701  01EE                     l135:	
  1702                           	line	184
  1703                           	
  1704  01EE                     l1270:	
  1705                           ;uart_io.c: 184: dummy_byte=1;
  1706  01EE  01FD               	clrf	(_dummy_byte)
  1707  01EF  1403               	bsf	status,0
  1708  01F0  0DFD               	rlf	(_dummy_byte),f
  1709                           	line	185
  1710                           	
  1711  01F1                     l1272:	
  1712                           ;uart_io.c: 185: dummy_byte=0;
  1713  01F1  01FD               	clrf	(_dummy_byte)
  1714                           	line	186
  1715                           ;uart_io.c: 186: dummy_byte=1;
  1716  01F2  01FD               	clrf	(_dummy_byte)
  1717  01F3  1403               	bsf	status,0
  1718  01F4  0DFD               	rlf	(_dummy_byte),f
  1719                           	line	187
  1720                           ;uart_io.c: 187: dummy_byte=1;
  1721  01F5  01FD               	clrf	(_dummy_byte)
  1722  01F6  1403               	bsf	status,0
  1723  01F7  0DFD               	rlf	(_dummy_byte),f
  1724                           	line	188
  1725                           ;uart_io.c: 188: break;
  1726  01F8  2A35               	goto	l139
  1727                           	line	189
  1728                           ;uart_io.c: 189: case 6:
  1729                           	
  1730  01F9                     l136:	
  1731                           	line	190
  1732                           	
  1733  01F9                     l1274:	
  1734                           ;uart_io.c: 190: dummy_byte=1;
  1735  01F9  01FD               	clrf	(_dummy_byte)
  1736  01FA  1403               	bsf	status,0
  1737  01FB  0DFD               	rlf	(_dummy_byte),f
  1738                           	line	191
  1739                           	
  1740  01FC                     l1276:	
  1741                           ;uart_io.c: 191: dummy_byte=0;
  1742  01FC  01FD               	clrf	(_dummy_byte)
  1743                           	line	192
  1744                           ;uart_io.c: 192: dummy_byte=1;
  1745  01FD  01FD               	clrf	(_dummy_byte)
  1746  01FE  1403               	bsf	status,0
  1747  01FF  0DFD               	rlf	(_dummy_byte),f
  1748                           	line	193
  1749                           ;uart_io.c: 193: dummy_byte=1;
  1750  0200  01FD               	clrf	(_dummy_byte)
  1751  0201  1403               	bsf	status,0
  1752  0202  0DFD               	rlf	(_dummy_byte),f
  1753                           	line	194
  1754                           ;uart_io.c: 194: break;
  1755  0203  2A35               	goto	l139
  1756                           	line	195
  1757                           ;uart_io.c: 195: case 7:
  1758                           	
  1759  0204                     l137:	
  1760                           	line	196
  1761                           	
  1762  0204                     l1278:	
  1763                           ;uart_io.c: 196: dummy_byte=1;
  1764  0204  01FD               	clrf	(_dummy_byte)
  1765  0205  1403               	bsf	status,0
  1766  0206  0DFD               	rlf	(_dummy_byte),f
  1767                           	line	197
  1768                           	
  1769  0207                     l1280:	
  1770                           ;uart_io.c: 197: dummy_byte=0;
  1771  0207  01FD               	clrf	(_dummy_byte)
  1772                           	line	198
  1773                           ;uart_io.c: 198: dummy_byte=1;
  1774  0208  01FD               	clrf	(_dummy_byte)
  1775  0209  1403               	bsf	status,0
  1776  020A  0DFD               	rlf	(_dummy_byte),f
  1777                           	line	199
  1778                           ;uart_io.c: 199: dummy_byte=1;
  1779  020B  01FD               	clrf	(_dummy_byte)
  1780  020C  1403               	bsf	status,0
  1781  020D  0DFD               	rlf	(_dummy_byte),f
  1782                           	line	200
  1783                           ;uart_io.c: 200: break;
  1784  020E  2A35               	goto	l139
  1785                           	line	201
  1786                           ;uart_io.c: 201: case 8:
  1787                           	
  1788  020F                     l138:	
  1789                           	line	202
  1790                           	
  1791  020F                     l1282:	
  1792                           ;uart_io.c: 202: dummy_byte=1;
  1793  020F  01FD               	clrf	(_dummy_byte)
  1794  0210  1403               	bsf	status,0
  1795  0211  0DFD               	rlf	(_dummy_byte),f
  1796                           	line	203
  1797                           	
  1798  0212                     l1284:	
  1799                           ;uart_io.c: 203: dummy_byte=0;
  1800  0212  01FD               	clrf	(_dummy_byte)
  1801                           	line	204
  1802                           ;uart_io.c: 204: dummy_byte=1;
  1803  0213  01FD               	clrf	(_dummy_byte)
  1804  0214  1403               	bsf	status,0
  1805  0215  0DFD               	rlf	(_dummy_byte),f
  1806                           	line	205
  1807                           ;uart_io.c: 205: dummy_byte=1;
  1808  0216  01FD               	clrf	(_dummy_byte)
  1809  0217  1403               	bsf	status,0
  1810  0218  0DFD               	rlf	(_dummy_byte),f
  1811                           	line	206
  1812                           ;uart_io.c: 206: break;
  1813  0219  2A35               	goto	l139
  1814                           	line	208
  1815                           	
  1816  021A                     l1286:	
  1817                           ;uart_io.c: 208: }
  1818  021A  2A35               	goto	l139
  1819                           	line	157
  1820                           	
  1821  021B                     l129:	
  1822                           	
  1823  021B                     l1288:	
  1824  021B  0870               	movf	(uart_init@channel),w
  1825                           	; Switch size 1, requested type "space"
  1826                           ; Number of cases is 8, Range of values is 1 to 8
  1827                           ; switch strategies available:
  1828                           ; Name         Instructions Cycles
  1829                           ; simple_byte           25    13 (average)
  1830                           ; direct_byte           35    11 (fixed)
  1831                           ; jumptable            263     9 (fixed)
  1832                           ;	Chosen strategy is simple_byte
  1833                           
  1834                           	opt asmopt_off
  1835  021C  3A01               	xorlw	1^0	; case 1
  1836  021D  1903               	skipnz
  1837  021E  29BE               	goto	l130
  1838  021F  3A03               	xorlw	2^1	; case 2
  1839  0220  1903               	skipnz
  1840  0221  29CB               	goto	l132
  1841  0222  3A01               	xorlw	3^2	; case 3
  1842  0223  1903               	skipnz
  1843  0224  29D8               	goto	l1262
  1844  0225  3A07               	xorlw	4^3	; case 4
  1845  0226  1903               	skipnz
  1846  0227  29E3               	goto	l1266
  1847  0228  3A01               	xorlw	5^4	; case 5
  1848  0229  1903               	skipnz
  1849  022A  29EE               	goto	l1270
  1850  022B  3A03               	xorlw	6^5	; case 6
  1851  022C  1903               	skipnz
  1852  022D  29F9               	goto	l1274
  1853  022E  3A01               	xorlw	7^6	; case 7
  1854  022F  1903               	skipnz
  1855  0230  2A04               	goto	l1278
  1856  0231  3A0F               	xorlw	8^7	; case 8
  1857  0232  1903               	skipnz
  1858  0233  2A0F               	goto	l1282
  1859  0234  2A35               	goto	l139
  1860                           	opt asmopt_on
  1861                           
  1862                           	line	208
  1863                           	
  1864  0235                     l131:	
  1865                           	line	209
  1866                           	
  1867  0235                     l139:	
  1868  0235  0008               	return
  1869                           	opt stack 0
  1870                           GLOBAL	__end_of_uart_init
  1871  0236                     	__end_of_uart_init:
  1872                           	signat	_uart_init,4216
  1873                           	global	_uart_read
  1874                           
  1875 ;; *************** function _uart_read *****************
  1876 ;; Defined at:
  1877 ;;		line 390 in file "uart_io.c"
  1878 ;; Parameters:    Size  Location     Type
  1879 ;;  channel         1    wreg     unsigned char 
  1880 ;; Auto vars:     Size  Location     Type
  1881 ;;  channel         1    3[COMMON] unsigned char 
  1882 ;;  i               1    5[COMMON] unsigned char 
  1883 ;;  result          1    4[COMMON] unsigned char 
  1884 ;;  dummy_mask      1    2[COMMON] unsigned char 
  1885 ;; Return value:  Size  Location     Type
  1886 ;;                  1    wreg      unsigned char 
  1887 ;; Registers used:
  1888 ;;		wreg, fsr0l, fsr0h, status,2, status,0
  1889 ;; Tracked objects:
  1890 ;;		On entry : 0/0
  1891 ;;		On exit  : 0/0
  1892 ;;		Unchanged: 0/0
  1893 ;; Data sizes:     COMMON   BANK0   BANK1   BANK3   BANK2
  1894 ;;      Params:         0       0       0       0       0
  1895 ;;      Locals:         4       0       0       0       0
  1896 ;;      Temps:          2       0       0       0       0
  1897 ;;      Totals:         6       0       0       0       0
  1898 ;;Total ram usage:        6 bytes
  1899 ;; Hardware stack levels used:    1
  1900 ;; This function calls:
  1901 ;;		Nothing
  1902 ;; This function is called by:
  1903 ;;		_main
  1904 ;; This function uses a non-reentrant model
  1905 ;;
  1906                           psect	text198,local,class=CODE,delta=2,merge=1
  1907                           global __ptext198
  1908  05E7                     __ptext198:
  1909                           psect	text198
  1910                           	file	"uart_io.c"
  1911                           	line	390
  1912                           	global	__size_of_uart_read
  1913  0219                     	__size_of_uart_read	equ	__end_of_uart_read-_uart_read
  1914                           	
  1915  05E7                     _uart_read:	
  1916                           	opt	stack 7
  1917                           ; Regs used in _uart_read: [wreg-fsr0h+status,2+status,0]
  1918                           ;uart_read@channel stored from wreg
  1919                           	line	392
  1920  05E7  00F3               	movwf	(uart_read@channel)
  1921                           	
  1922  05E8                     l1308:	
  1923                           ;uart_io.c: 391: unsigned char i;
  1924                           ;uart_io.c: 392: unsigned char result=0;
  1925  05E8  01F4               	clrf	(uart_read@result)
  1926                           	line	393
  1927                           ;uart_io.c: 393: unsigned char dummy_mask=0x00;
  1928  05E9  01F2               	clrf	(uart_read@dummy_mask)
  1929                           	line	395
  1930                           ;uart_io.c: 395: switch(channel)
  1931  05EA  2FE3               	goto	l1464
  1932                           	line	397
  1933                           ;uart_io.c: 396: {
  1934                           ;uart_io.c: 397: case 1:
  1935                           	
  1936  05EB                     l188:	
  1937                           	line	398
  1938                           ;uart_io.c: 398: while(RC3);
  1939  05EB  2DEC               	goto	l189
  1940                           	
  1941  05EC                     l190:	
  1942                           	
  1943  05EC                     l189:	
  1944  05EC  1283               	bcf	status, 5	;RP0=0, select bank0
  1945  05ED  1303               	bcf	status, 6	;RP1=0, select bank0
  1946  05EE  1987               	btfsc	(59/8),(59)&7	;volatile
  1947  05EF  2DF1               	goto	u731
  1948  05F0  2DF2               	goto	u730
  1949  05F1                     u731:
  1950  05F1  2DEC               	goto	l189
  1951  05F2                     u730:
  1952  05F2  2DF3               	goto	l1310
  1953                           	
  1954  05F3                     l191:	
  1955                           	line	399
  1956                           	
  1957  05F3                     l1310:	
  1958                           ;uart_io.c: 399: _delay((20000000/4)/9600-10);
  1959                           	opt asmopt_off
  1960  05F3  30A9               movlw	169
  1961  05F4  00F0               movwf	(??_uart_read+0)+0,f
  1962  05F5                     u1397:
  1963  05F5  0BF0               decfsz	(??_uart_read+0)+0,f
  1964  05F6  2DF5               	goto	u1397
  1965  05F7  2DF8               	nop2	;nop
  1966                           opt asmopt_on
  1967                           
  1968                           	line	400
  1969                           ;uart_io.c: 400: _delay((20000000/4)/9600/2);
  1970                           	opt asmopt_off
  1971  05F8  3056               movlw	86
  1972  05F9  00F0               movwf	(??_uart_read+0)+0,f
  1973  05FA                     u1407:
  1974  05FA  0BF0               decfsz	(??_uart_read+0)+0,f
  1975  05FB  2DFA               	goto	u1407
  1976  05FC  0000               	nop
  1977                           opt asmopt_on
  1978                           
  1979                           	line	401
  1980                           	
  1981  05FD                     l1312:	
  1982                           ;uart_io.c: 401: for(i=1;i>0;i=i<<1)
  1983  05FD  01F5               	clrf	(uart_read@i)
  1984  05FE  1403               	bsf	status,0
  1985  05FF  0DF5               	rlf	(uart_read@i),f
  1986                           	
  1987  0600                     l1314:	
  1988  0600  08F5               	movf	(uart_read@i),f
  1989  0601  1D03               	skipz
  1990  0602  2E04               	goto	u741
  1991  0603  2E05               	goto	u740
  1992  0604                     u741:
  1993  0604  2E07               	goto	l192
  1994  0605                     u740:
  1995  0605  2E24               	goto	l1324
  1996                           	
  1997  0606                     l1316:	
  1998  0606  2E24               	goto	l1324
  1999                           	line	402
  2000                           	
  2001  0607                     l192:	
  2002                           	line	403
  2003                           ;uart_io.c: 402: {
  2004                           ;uart_io.c: 403: if(RC3==1)
  2005  0607  1283               	bcf	status, 5	;RP0=0, select bank0
  2006  0608  1303               	bcf	status, 6	;RP1=0, select bank0
  2007  0609  1D87               	btfss	(59/8),(59)&7	;volatile
  2008  060A  2E0C               	goto	u751
  2009  060B  2E0D               	goto	u750
  2010  060C                     u751:
  2011  060C  2E13               	goto	l1320
  2012  060D                     u750:
  2013                           	line	405
  2014                           	
  2015  060D                     l1318:	
  2016                           ;uart_io.c: 404: {
  2017                           ;uart_io.c: 405: result|=i;
  2018  060D  0875               	movf	(uart_read@i),w
  2019  060E  00F0               	movwf	(??_uart_read+0)+0
  2020  060F  0870               	movf	(??_uart_read+0)+0,w
  2021  0610  04F4               	iorwf	(uart_read@result),f
  2022                           	line	406
  2023                           ;uart_io.c: 406: }
  2024  0611  2E13               	goto	l1320
  2025                           	line	407
  2026                           	
  2027  0612                     l194:	
  2028  0612  2E13               	goto	l1320
  2029                           	line	410
  2030                           	
  2031  0613                     l195:	
  2032                           	line	411
  2033                           	
  2034  0613                     l1320:	
  2035                           ;uart_io.c: 410: }
  2036                           ;uart_io.c: 411: _delay((20000000/4)/9600-20);
  2037                           	opt asmopt_off
  2038  0613  30A6               movlw	166
  2039  0614  00F0               movwf	(??_uart_read+0)+0,f
  2040  0615                     u1417:
  2041  0615  0BF0               decfsz	(??_uart_read+0)+0,f
  2042  0616  2E15               	goto	u1417
  2043  0617  0000               	nop
  2044                           opt asmopt_on
  2045                           
  2046                           	line	401
  2047                           	
  2048  0618                     l1322:	
  2049  0618  0875               	movf	(uart_read@i),w
  2050  0619  00F0               	movwf	(??_uart_read+0)+0
  2051  061A  0770               	addwf	(??_uart_read+0)+0,w
  2052  061B  00F1               	movwf	(??_uart_read+1)+0
  2053  061C  0871               	movf	(??_uart_read+1)+0,w
  2054  061D  00F5               	movwf	(uart_read@i)
  2055  061E  08F5               	movf	(uart_read@i),f
  2056  061F  1D03               	skipz
  2057  0620  2E22               	goto	u761
  2058  0621  2E23               	goto	u760
  2059  0622                     u761:
  2060  0622  2E07               	goto	l192
  2061  0623                     u760:
  2062  0623  2E24               	goto	l1324
  2063                           	
  2064  0624                     l193:	
  2065                           	line	413
  2066                           	
  2067  0624                     l1324:	
  2068                           ;uart_io.c: 412: }
  2069                           ;uart_io.c: 413: _delay((20000000/4)/9600/2);
  2070                           	opt asmopt_off
  2071  0624  3056               movlw	86
  2072  0625  00F0               movwf	(??_uart_read+0)+0,f
  2073  0626                     u1427:
  2074  0626  0BF0               decfsz	(??_uart_read+0)+0,f
  2075  0627  2E26               	goto	u1427
  2076  0628  0000               	nop
  2077                           opt asmopt_on
  2078                           
  2079                           	line	414
  2080                           ;uart_io.c: 414: break;
  2081  0629  2FFD               	goto	l1466
  2082                           	line	415
  2083                           ;uart_io.c: 415: case 2:
  2084                           	
  2085  062A                     l197:	
  2086                           	line	416
  2087                           ;uart_io.c: 416: while(RC1);
  2088  062A  2E2B               	goto	l198
  2089                           	
  2090  062B                     l199:	
  2091                           	
  2092  062B                     l198:	
  2093  062B  1283               	bcf	status, 5	;RP0=0, select bank0
  2094  062C  1303               	bcf	status, 6	;RP1=0, select bank0
  2095  062D  1887               	btfsc	(57/8),(57)&7	;volatile
  2096  062E  2E30               	goto	u771
  2097  062F  2E31               	goto	u770
  2098  0630                     u771:
  2099  0630  2E2B               	goto	l198
  2100  0631                     u770:
  2101  0631  2E32               	goto	l1326
  2102                           	
  2103  0632                     l200:	
  2104                           	line	417
  2105                           	
  2106  0632                     l1326:	
  2107                           ;uart_io.c: 417: _delay((20000000/4)/9600-10);
  2108                           	opt asmopt_off
  2109  0632  30A9               movlw	169
  2110  0633  00F0               movwf	(??_uart_read+0)+0,f
  2111  0634                     u1437:
  2112  0634  0BF0               decfsz	(??_uart_read+0)+0,f
  2113  0635  2E34               	goto	u1437
  2114  0636  2E37               	nop2	;nop
  2115                           opt asmopt_on
  2116                           
  2117                           	line	418
  2118                           ;uart_io.c: 418: _delay((20000000/4)/9600/2);
  2119                           	opt asmopt_off
  2120  0637  3056               movlw	86
  2121  0638  00F0               movwf	(??_uart_read+0)+0,f
  2122  0639                     u1447:
  2123  0639  0BF0               decfsz	(??_uart_read+0)+0,f
  2124  063A  2E39               	goto	u1447
  2125  063B  0000               	nop
  2126                           opt asmopt_on
  2127                           
  2128                           	line	419
  2129                           	
  2130  063C                     l1328:	
  2131                           ;uart_io.c: 419: for(i=1;i>0;i=i<<1)
  2132  063C  01F5               	clrf	(uart_read@i)
  2133  063D  1403               	bsf	status,0
  2134  063E  0DF5               	rlf	(uart_read@i),f
  2135                           	
  2136  063F                     l1330:	
  2137  063F  08F5               	movf	(uart_read@i),f
  2138  0640  1D03               	skipz
  2139  0641  2E43               	goto	u781
  2140  0642  2E44               	goto	u780
  2141  0643                     u781:
  2142  0643  2E46               	goto	l201
  2143  0644                     u780:
  2144  0644  2E63               	goto	l1340
  2145                           	
  2146  0645                     l1332:	
  2147  0645  2E63               	goto	l1340
  2148                           	line	420
  2149                           	
  2150  0646                     l201:	
  2151                           	line	421
  2152                           ;uart_io.c: 420: {
  2153                           ;uart_io.c: 421: if(RC1==1)
  2154  0646  1283               	bcf	status, 5	;RP0=0, select bank0
  2155  0647  1303               	bcf	status, 6	;RP1=0, select bank0
  2156  0648  1C87               	btfss	(57/8),(57)&7	;volatile
  2157  0649  2E4B               	goto	u791
  2158  064A  2E4C               	goto	u790
  2159  064B                     u791:
  2160  064B  2E52               	goto	l1336
  2161  064C                     u790:
  2162                           	line	423
  2163                           	
  2164  064C                     l1334:	
  2165                           ;uart_io.c: 422: {
  2166                           ;uart_io.c: 423: result|=i;
  2167  064C  0875               	movf	(uart_read@i),w
  2168  064D  00F0               	movwf	(??_uart_read+0)+0
  2169  064E  0870               	movf	(??_uart_read+0)+0,w
  2170  064F  04F4               	iorwf	(uart_read@result),f
  2171                           	line	424
  2172                           ;uart_io.c: 424: }
  2173  0650  2E52               	goto	l1336
  2174                           	line	425
  2175                           	
  2176  0651                     l203:	
  2177  0651  2E52               	goto	l1336
  2178                           	line	428
  2179                           	
  2180  0652                     l204:	
  2181                           	line	429
  2182                           	
  2183  0652                     l1336:	
  2184                           ;uart_io.c: 428: }
  2185                           ;uart_io.c: 429: _delay((20000000/4)/9600-20);
  2186                           	opt asmopt_off
  2187  0652  30A6               movlw	166
  2188  0653  00F0               movwf	(??_uart_read+0)+0,f
  2189  0654                     u1457:
  2190  0654  0BF0               decfsz	(??_uart_read+0)+0,f
  2191  0655  2E54               	goto	u1457
  2192  0656  0000               	nop
  2193                           opt asmopt_on
  2194                           
  2195                           	line	419
  2196                           	
  2197  0657                     l1338:	
  2198  0657  0875               	movf	(uart_read@i),w
  2199  0658  00F0               	movwf	(??_uart_read+0)+0
  2200  0659  0770               	addwf	(??_uart_read+0)+0,w
  2201  065A  00F1               	movwf	(??_uart_read+1)+0
  2202  065B  0871               	movf	(??_uart_read+1)+0,w
  2203  065C  00F5               	movwf	(uart_read@i)
  2204  065D  08F5               	movf	(uart_read@i),f
  2205  065E  1D03               	skipz
  2206  065F  2E61               	goto	u801
  2207  0660  2E62               	goto	u800
  2208  0661                     u801:
  2209  0661  2E46               	goto	l201
  2210  0662                     u800:
  2211  0662  2E63               	goto	l1340
  2212                           	
  2213  0663                     l202:	
  2214                           	line	431
  2215                           	
  2216  0663                     l1340:	
  2217                           ;uart_io.c: 430: }
  2218                           ;uart_io.c: 431: _delay((20000000/4)/9600/2);
  2219                           	opt asmopt_off
  2220  0663  3056               movlw	86
  2221  0664  00F0               movwf	(??_uart_read+0)+0,f
  2222  0665                     u1467:
  2223  0665  0BF0               decfsz	(??_uart_read+0)+0,f
  2224  0666  2E65               	goto	u1467
  2225  0667  0000               	nop
  2226                           opt asmopt_on
  2227                           
  2228                           	line	432
  2229                           ;uart_io.c: 432: break;
  2230  0668  2FFD               	goto	l1466
  2231                           	line	433
  2232                           ;uart_io.c: 433: case 3:
  2233                           	
  2234  0669                     l205:	
  2235                           	line	434
  2236                           ;uart_io.c: 434: result=0;
  2237  0669  01F4               	clrf	(uart_read@result)
  2238                           	line	435
  2239                           ;uart_io.c: 435: while(dummy_byte);
  2240  066A  2E6C               	goto	l1342
  2241                           	
  2242  066B                     l207:	
  2243  066B  2E6C               	goto	l1342
  2244                           	
  2245  066C                     l206:	
  2246                           	
  2247  066C                     l1342:	
  2248  066C  08FD               	movf	(_dummy_byte),f
  2249  066D  1D03               	skipz
  2250  066E  2E70               	goto	u811
  2251  066F  2E71               	goto	u810
  2252  0670                     u811:
  2253  0670  2E6C               	goto	l1342
  2254  0671                     u810:
  2255  0671  2E72               	goto	l1344
  2256                           	
  2257  0672                     l208:	
  2258                           	line	436
  2259                           	
  2260  0672                     l1344:	
  2261                           ;uart_io.c: 436: _delay((20000000/4)/9600-10);
  2262                           	opt asmopt_off
  2263  0672  30A9               movlw	169
  2264  0673  00F0               movwf	(??_uart_read+0)+0,f
  2265  0674                     u1477:
  2266  0674  0BF0               decfsz	(??_uart_read+0)+0,f
  2267  0675  2E74               	goto	u1477
  2268  0676  2E77               	nop2	;nop
  2269                           opt asmopt_on
  2270                           
  2271                           	line	437
  2272                           ;uart_io.c: 437: _delay((20000000/4)/9600/2);
  2273                           	opt asmopt_off
  2274  0677  3056               movlw	86
  2275  0678  00F0               movwf	(??_uart_read+0)+0,f
  2276  0679                     u1487:
  2277  0679  0BF0               decfsz	(??_uart_read+0)+0,f
  2278  067A  2E79               	goto	u1487
  2279  067B  0000               	nop
  2280                           opt asmopt_on
  2281                           
  2282                           	line	438
  2283                           	
  2284  067C                     l1346:	
  2285                           ;uart_io.c: 438: for(i=1;i>0;i=i<<1)
  2286  067C  01F5               	clrf	(uart_read@i)
  2287  067D  1403               	bsf	status,0
  2288  067E  0DF5               	rlf	(uart_read@i),f
  2289                           	
  2290  067F                     l1348:	
  2291  067F  08F5               	movf	(uart_read@i),f
  2292  0680  1D03               	skipz
  2293  0681  2E83               	goto	u821
  2294  0682  2E84               	goto	u820
  2295  0683                     u821:
  2296  0683  2E86               	goto	l1352
  2297  0684                     u820:
  2298  0684  2EA1               	goto	l1360
  2299                           	
  2300  0685                     l1350:	
  2301  0685  2EA1               	goto	l1360
  2302                           	line	439
  2303                           	
  2304  0686                     l209:	
  2305                           	line	440
  2306                           	
  2307  0686                     l1352:	
  2308                           ;uart_io.c: 439: {
  2309                           ;uart_io.c: 440: if(dummy_byte)
  2310  0686  087D               	movf	(_dummy_byte),w
  2311  0687  1D03               	skipz
  2312  0688  2E8A               	goto	u830
  2313  0689  2E90               	goto	l1356
  2314  068A                     u830:
  2315                           	line	442
  2316                           	
  2317  068A                     l1354:	
  2318                           ;uart_io.c: 441: {
  2319                           ;uart_io.c: 442: result|=i;
  2320  068A  0875               	movf	(uart_read@i),w
  2321  068B  00F0               	movwf	(??_uart_read+0)+0
  2322  068C  0870               	movf	(??_uart_read+0)+0,w
  2323  068D  04F4               	iorwf	(uart_read@result),f
  2324                           	line	443
  2325                           ;uart_io.c: 443: }
  2326  068E  2E90               	goto	l1356
  2327                           	line	444
  2328                           	
  2329  068F                     l211:	
  2330  068F  2E90               	goto	l1356
  2331                           	line	447
  2332                           	
  2333  0690                     l212:	
  2334                           	line	448
  2335                           	
  2336  0690                     l1356:	
  2337                           ;uart_io.c: 447: }
  2338                           ;uart_io.c: 448: _delay((20000000/4)/9600-20);
  2339                           	opt asmopt_off
  2340  0690  30A6               movlw	166
  2341  0691  00F0               movwf	(??_uart_read+0)+0,f
  2342  0692                     u1497:
  2343  0692  0BF0               decfsz	(??_uart_read+0)+0,f
  2344  0693  2E92               	goto	u1497
  2345  0694  0000               	nop
  2346                           opt asmopt_on
  2347                           
  2348                           	line	438
  2349                           	
  2350  0695                     l1358:	
  2351  0695  0875               	movf	(uart_read@i),w
  2352  0696  00F0               	movwf	(??_uart_read+0)+0
  2353  0697  0770               	addwf	(??_uart_read+0)+0,w
  2354  0698  00F1               	movwf	(??_uart_read+1)+0
  2355  0699  0871               	movf	(??_uart_read+1)+0,w
  2356  069A  00F5               	movwf	(uart_read@i)
  2357  069B  08F5               	movf	(uart_read@i),f
  2358  069C  1D03               	skipz
  2359  069D  2E9F               	goto	u841
  2360  069E  2EA0               	goto	u840
  2361  069F                     u841:
  2362  069F  2E86               	goto	l1352
  2363  06A0                     u840:
  2364  06A0  2EA1               	goto	l1360
  2365                           	
  2366  06A1                     l210:	
  2367                           	line	450
  2368                           	
  2369  06A1                     l1360:	
  2370                           ;uart_io.c: 449: }
  2371                           ;uart_io.c: 450: _delay((20000000/4)/9600/2);
  2372                           	opt asmopt_off
  2373  06A1  3056               movlw	86
  2374  06A2  00F0               movwf	(??_uart_read+0)+0,f
  2375  06A3                     u1507:
  2376  06A3  0BF0               decfsz	(??_uart_read+0)+0,f
  2377  06A4  2EA3               	goto	u1507
  2378  06A5  0000               	nop
  2379                           opt asmopt_on
  2380                           
  2381                           	line	451
  2382                           ;uart_io.c: 451: break;
  2383  06A6  2FFD               	goto	l1466
  2384                           	line	452
  2385                           ;uart_io.c: 452: case 4:
  2386                           	
  2387  06A7                     l213:	
  2388                           	line	453
  2389                           ;uart_io.c: 453: while(dummy_byte);
  2390  06A7  2EA9               	goto	l1362
  2391                           	
  2392  06A8                     l215:	
  2393  06A8  2EA9               	goto	l1362
  2394                           	
  2395  06A9                     l214:	
  2396                           	
  2397  06A9                     l1362:	
  2398  06A9  08FD               	movf	(_dummy_byte),f
  2399  06AA  1D03               	skipz
  2400  06AB  2EAD               	goto	u851
  2401  06AC  2EAE               	goto	u850
  2402  06AD                     u851:
  2403  06AD  2EA9               	goto	l1362
  2404  06AE                     u850:
  2405  06AE  2EAF               	goto	l1364
  2406                           	
  2407  06AF                     l216:	
  2408                           	line	454
  2409                           	
  2410  06AF                     l1364:	
  2411                           ;uart_io.c: 454: _delay((20000000/4)/9600-10);
  2412                           	opt asmopt_off
  2413  06AF  30A9               movlw	169
  2414  06B0  00F0               movwf	(??_uart_read+0)+0,f
  2415  06B1                     u1517:
  2416  06B1  0BF0               decfsz	(??_uart_read+0)+0,f
  2417  06B2  2EB1               	goto	u1517
  2418  06B3  2EB4               	nop2	;nop
  2419                           opt asmopt_on
  2420                           
  2421                           	line	455
  2422                           ;uart_io.c: 455: _delay((20000000/4)/9600/2);
  2423                           	opt asmopt_off
  2424  06B4  3056               movlw	86
  2425  06B5  00F0               movwf	(??_uart_read+0)+0,f
  2426  06B6                     u1527:
  2427  06B6  0BF0               decfsz	(??_uart_read+0)+0,f
  2428  06B7  2EB6               	goto	u1527
  2429  06B8  0000               	nop
  2430                           opt asmopt_on
  2431                           
  2432                           	line	456
  2433                           	
  2434  06B9                     l1366:	
  2435                           ;uart_io.c: 456: for(i=1;i>0;i=i<<1)
  2436  06B9  01F5               	clrf	(uart_read@i)
  2437  06BA  1403               	bsf	status,0
  2438  06BB  0DF5               	rlf	(uart_read@i),f
  2439                           	
  2440  06BC                     l1368:	
  2441  06BC  08F5               	movf	(uart_read@i),f
  2442  06BD  1D03               	skipz
  2443  06BE  2EC0               	goto	u861
  2444  06BF  2EC1               	goto	u860
  2445  06C0                     u861:
  2446  06C0  2EC3               	goto	l1372
  2447  06C1                     u860:
  2448  06C1  2EE0               	goto	l1380
  2449                           	
  2450  06C2                     l1370:	
  2451  06C2  2EE0               	goto	l1380
  2452                           	line	457
  2453                           	
  2454  06C3                     l217:	
  2455                           	line	458
  2456                           	
  2457  06C3                     l1372:	
  2458                           ;uart_io.c: 457: {
  2459                           ;uart_io.c: 458: if(dummy_byte==1)
  2460  06C3  087D               	movf	(_dummy_byte),w
  2461  06C4  3A01               	xorlw	01h
  2462  06C5  1D03               	skipz
  2463  06C6  2EC8               	goto	u871
  2464  06C7  2EC9               	goto	u870
  2465  06C8                     u871:
  2466  06C8  2ECF               	goto	l1376
  2467  06C9                     u870:
  2468                           	line	460
  2469                           	
  2470  06C9                     l1374:	
  2471                           ;uart_io.c: 459: {
  2472                           ;uart_io.c: 460: result|=i;
  2473  06C9  0875               	movf	(uart_read@i),w
  2474  06CA  00F0               	movwf	(??_uart_read+0)+0
  2475  06CB  0870               	movf	(??_uart_read+0)+0,w
  2476  06CC  04F4               	iorwf	(uart_read@result),f
  2477                           	line	461
  2478                           ;uart_io.c: 461: }
  2479  06CD  2ECF               	goto	l1376
  2480                           	line	462
  2481                           	
  2482  06CE                     l219:	
  2483  06CE  2ECF               	goto	l1376
  2484                           	line	465
  2485                           	
  2486  06CF                     l220:	
  2487                           	line	466
  2488                           	
  2489  06CF                     l1376:	
  2490                           ;uart_io.c: 465: }
  2491                           ;uart_io.c: 466: _delay((20000000/4)/9600-20);
  2492                           	opt asmopt_off
  2493  06CF  30A6               movlw	166
  2494  06D0  00F0               movwf	(??_uart_read+0)+0,f
  2495  06D1                     u1537:
  2496  06D1  0BF0               decfsz	(??_uart_read+0)+0,f
  2497  06D2  2ED1               	goto	u1537
  2498  06D3  0000               	nop
  2499                           opt asmopt_on
  2500                           
  2501                           	line	456
  2502                           	
  2503  06D4                     l1378:	
  2504  06D4  0875               	movf	(uart_read@i),w
  2505  06D5  00F0               	movwf	(??_uart_read+0)+0
  2506  06D6  0770               	addwf	(??_uart_read+0)+0,w
  2507  06D7  00F1               	movwf	(??_uart_read+1)+0
  2508  06D8  0871               	movf	(??_uart_read+1)+0,w
  2509  06D9  00F5               	movwf	(uart_read@i)
  2510  06DA  08F5               	movf	(uart_read@i),f
  2511  06DB  1D03               	skipz
  2512  06DC  2EDE               	goto	u881
  2513  06DD  2EDF               	goto	u880
  2514  06DE                     u881:
  2515  06DE  2EC3               	goto	l1372
  2516  06DF                     u880:
  2517  06DF  2EE0               	goto	l1380
  2518                           	
  2519  06E0                     l218:	
  2520                           	line	468
  2521                           	
  2522  06E0                     l1380:	
  2523                           ;uart_io.c: 467: }
  2524                           ;uart_io.c: 468: _delay((20000000/4)/9600/2);
  2525                           	opt asmopt_off
  2526  06E0  3056               movlw	86
  2527  06E1  00F0               movwf	(??_uart_read+0)+0,f
  2528  06E2                     u1547:
  2529  06E2  0BF0               decfsz	(??_uart_read+0)+0,f
  2530  06E3  2EE2               	goto	u1547
  2531  06E4  0000               	nop
  2532                           opt asmopt_on
  2533                           
  2534                           	line	469
  2535                           ;uart_io.c: 469: break;
  2536  06E5  2FFD               	goto	l1466
  2537                           	line	470
  2538                           ;uart_io.c: 470: case 5:
  2539                           	
  2540  06E6                     l221:	
  2541                           	line	471
  2542                           ;uart_io.c: 471: while(dummy_byte);
  2543  06E6  2EE8               	goto	l1382
  2544                           	
  2545  06E7                     l223:	
  2546  06E7  2EE8               	goto	l1382
  2547                           	
  2548  06E8                     l222:	
  2549                           	
  2550  06E8                     l1382:	
  2551  06E8  08FD               	movf	(_dummy_byte),f
  2552  06E9  1D03               	skipz
  2553  06EA  2EEC               	goto	u891
  2554  06EB  2EED               	goto	u890
  2555  06EC                     u891:
  2556  06EC  2EE8               	goto	l1382
  2557  06ED                     u890:
  2558  06ED  2EEE               	goto	l1384
  2559                           	
  2560  06EE                     l224:	
  2561                           	line	472
  2562                           	
  2563  06EE                     l1384:	
  2564                           ;uart_io.c: 472: _delay((20000000/4)/9600-10);
  2565                           	opt asmopt_off
  2566  06EE  30A9               movlw	169
  2567  06EF  00F0               movwf	(??_uart_read+0)+0,f
  2568  06F0                     u1557:
  2569  06F0  0BF0               decfsz	(??_uart_read+0)+0,f
  2570  06F1  2EF0               	goto	u1557
  2571  06F2  2EF3               	nop2	;nop
  2572                           opt asmopt_on
  2573                           
  2574                           	line	473
  2575                           ;uart_io.c: 473: _delay((20000000/4)/9600/2);
  2576                           	opt asmopt_off
  2577  06F3  3056               movlw	86
  2578  06F4  00F0               movwf	(??_uart_read+0)+0,f
  2579  06F5                     u1567:
  2580  06F5  0BF0               decfsz	(??_uart_read+0)+0,f
  2581  06F6  2EF5               	goto	u1567
  2582  06F7  0000               	nop
  2583                           opt asmopt_on
  2584                           
  2585                           	line	474
  2586                           	
  2587  06F8                     l1386:	
  2588                           ;uart_io.c: 474: for(i=1;i>0;i=i<<1)
  2589  06F8  01F5               	clrf	(uart_read@i)
  2590  06F9  1403               	bsf	status,0
  2591  06FA  0DF5               	rlf	(uart_read@i),f
  2592                           	
  2593  06FB                     l1388:	
  2594  06FB  08F5               	movf	(uart_read@i),f
  2595  06FC  1D03               	skipz
  2596  06FD  2EFF               	goto	u901
  2597  06FE  2F00               	goto	u900
  2598  06FF                     u901:
  2599  06FF  2F02               	goto	l1392
  2600  0700                     u900:
  2601  0700  2F1F               	goto	l1400
  2602                           	
  2603  0701                     l1390:	
  2604  0701  2F1F               	goto	l1400
  2605                           	line	475
  2606                           	
  2607  0702                     l225:	
  2608                           	line	476
  2609                           	
  2610  0702                     l1392:	
  2611                           ;uart_io.c: 475: {
  2612                           ;uart_io.c: 476: if(dummy_byte==1)
  2613  0702  087D               	movf	(_dummy_byte),w
  2614  0703  3A01               	xorlw	01h
  2615  0704  1D03               	skipz
  2616  0705  2F07               	goto	u911
  2617  0706  2F08               	goto	u910
  2618  0707                     u911:
  2619  0707  2F0E               	goto	l1396
  2620  0708                     u910:
  2621                           	line	478
  2622                           	
  2623  0708                     l1394:	
  2624                           ;uart_io.c: 477: {
  2625                           ;uart_io.c: 478: result|=i;
  2626  0708  0875               	movf	(uart_read@i),w
  2627  0709  00F0               	movwf	(??_uart_read+0)+0
  2628  070A  0870               	movf	(??_uart_read+0)+0,w
  2629  070B  04F4               	iorwf	(uart_read@result),f
  2630                           	line	479
  2631                           ;uart_io.c: 479: }
  2632  070C  2F0E               	goto	l1396
  2633                           	line	480
  2634                           	
  2635  070D                     l227:	
  2636  070D  2F0E               	goto	l1396
  2637                           	line	483
  2638                           	
  2639  070E                     l228:	
  2640                           	line	484
  2641                           	
  2642  070E                     l1396:	
  2643                           ;uart_io.c: 483: }
  2644                           ;uart_io.c: 484: _delay((20000000/4)/9600-20);
  2645                           	opt asmopt_off
  2646  070E  30A6               movlw	166
  2647  070F  00F0               movwf	(??_uart_read+0)+0,f
  2648  0710                     u1577:
  2649  0710  0BF0               decfsz	(??_uart_read+0)+0,f
  2650  0711  2F10               	goto	u1577
  2651  0712  0000               	nop
  2652                           opt asmopt_on
  2653                           
  2654                           	line	474
  2655                           	
  2656  0713                     l1398:	
  2657  0713  0875               	movf	(uart_read@i),w
  2658  0714  00F0               	movwf	(??_uart_read+0)+0
  2659  0715  0770               	addwf	(??_uart_read+0)+0,w
  2660  0716  00F1               	movwf	(??_uart_read+1)+0
  2661  0717  0871               	movf	(??_uart_read+1)+0,w
  2662  0718  00F5               	movwf	(uart_read@i)
  2663  0719  08F5               	movf	(uart_read@i),f
  2664  071A  1D03               	skipz
  2665  071B  2F1D               	goto	u921
  2666  071C  2F1E               	goto	u920
  2667  071D                     u921:
  2668  071D  2F02               	goto	l1392
  2669  071E                     u920:
  2670  071E  2F1F               	goto	l1400
  2671                           	
  2672  071F                     l226:	
  2673                           	line	486
  2674                           	
  2675  071F                     l1400:	
  2676                           ;uart_io.c: 485: }
  2677                           ;uart_io.c: 486: _delay((20000000/4)/9600/2);
  2678                           	opt asmopt_off
  2679  071F  3056               movlw	86
  2680  0720  00F0               movwf	(??_uart_read+0)+0,f
  2681  0721                     u1587:
  2682  0721  0BF0               decfsz	(??_uart_read+0)+0,f
  2683  0722  2F21               	goto	u1587
  2684  0723  0000               	nop
  2685                           opt asmopt_on
  2686                           
  2687                           	line	487
  2688                           ;uart_io.c: 487: break;
  2689  0724  2FFD               	goto	l1466
  2690                           	line	488
  2691                           ;uart_io.c: 488: case 6:
  2692                           	
  2693  0725                     l229:	
  2694                           	line	489
  2695                           ;uart_io.c: 489: while(dummy_byte);
  2696  0725  2F27               	goto	l1402
  2697                           	
  2698  0726                     l231:	
  2699  0726  2F27               	goto	l1402
  2700                           	
  2701  0727                     l230:	
  2702                           	
  2703  0727                     l1402:	
  2704  0727  08FD               	movf	(_dummy_byte),f
  2705  0728  1D03               	skipz
  2706  0729  2F2B               	goto	u931
  2707  072A  2F2C               	goto	u930
  2708  072B                     u931:
  2709  072B  2F27               	goto	l1402
  2710  072C                     u930:
  2711  072C  2F2D               	goto	l1404
  2712                           	
  2713  072D                     l232:	
  2714                           	line	490
  2715                           	
  2716  072D                     l1404:	
  2717                           ;uart_io.c: 490: _delay((20000000/4)/9600-10);
  2718                           	opt asmopt_off
  2719  072D  30A9               movlw	169
  2720  072E  00F0               movwf	(??_uart_read+0)+0,f
  2721  072F                     u1597:
  2722  072F  0BF0               decfsz	(??_uart_read+0)+0,f
  2723  0730  2F2F               	goto	u1597
  2724  0731  2F32               	nop2	;nop
  2725                           opt asmopt_on
  2726                           
  2727                           	line	491
  2728                           ;uart_io.c: 491: _delay((20000000/4)/9600/2);
  2729                           	opt asmopt_off
  2730  0732  3056               movlw	86
  2731  0733  00F0               movwf	(??_uart_read+0)+0,f
  2732  0734                     u1607:
  2733  0734  0BF0               decfsz	(??_uart_read+0)+0,f
  2734  0735  2F34               	goto	u1607
  2735  0736  0000               	nop
  2736                           opt asmopt_on
  2737                           
  2738                           	line	492
  2739                           	
  2740  0737                     l1406:	
  2741                           ;uart_io.c: 492: for(i=1;i>0;i=i<<1)
  2742  0737  01F5               	clrf	(uart_read@i)
  2743  0738  1403               	bsf	status,0
  2744  0739  0DF5               	rlf	(uart_read@i),f
  2745                           	
  2746  073A                     l1408:	
  2747  073A  08F5               	movf	(uart_read@i),f
  2748  073B  1D03               	skipz
  2749  073C  2F3E               	goto	u941
  2750  073D  2F3F               	goto	u940
  2751  073E                     u941:
  2752  073E  2F41               	goto	l1412
  2753  073F                     u940:
  2754  073F  2F5E               	goto	l1420
  2755                           	
  2756  0740                     l1410:	
  2757  0740  2F5E               	goto	l1420
  2758                           	line	493
  2759                           	
  2760  0741                     l233:	
  2761                           	line	494
  2762                           	
  2763  0741                     l1412:	
  2764                           ;uart_io.c: 493: {
  2765                           ;uart_io.c: 494: if(dummy_byte==1)
  2766  0741  087D               	movf	(_dummy_byte),w
  2767  0742  3A01               	xorlw	01h
  2768  0743  1D03               	skipz
  2769  0744  2F46               	goto	u951
  2770  0745  2F47               	goto	u950
  2771  0746                     u951:
  2772  0746  2F4D               	goto	l1416
  2773  0747                     u950:
  2774                           	line	496
  2775                           	
  2776  0747                     l1414:	
  2777                           ;uart_io.c: 495: {
  2778                           ;uart_io.c: 496: result|=i;
  2779  0747  0875               	movf	(uart_read@i),w
  2780  0748  00F0               	movwf	(??_uart_read+0)+0
  2781  0749  0870               	movf	(??_uart_read+0)+0,w
  2782  074A  04F4               	iorwf	(uart_read@result),f
  2783                           	line	497
  2784                           ;uart_io.c: 497: }
  2785  074B  2F4D               	goto	l1416
  2786                           	line	498
  2787                           	
  2788  074C                     l235:	
  2789  074C  2F4D               	goto	l1416
  2790                           	line	501
  2791                           	
  2792  074D                     l236:	
  2793                           	line	502
  2794                           	
  2795  074D                     l1416:	
  2796                           ;uart_io.c: 501: }
  2797                           ;uart_io.c: 502: _delay((20000000/4)/9600-20);
  2798                           	opt asmopt_off
  2799  074D  30A6               movlw	166
  2800  074E  00F0               movwf	(??_uart_read+0)+0,f
  2801  074F                     u1617:
  2802  074F  0BF0               decfsz	(??_uart_read+0)+0,f
  2803  0750  2F4F               	goto	u1617
  2804  0751  0000               	nop
  2805                           opt asmopt_on
  2806                           
  2807                           	line	492
  2808                           	
  2809  0752                     l1418:	
  2810  0752  0875               	movf	(uart_read@i),w
  2811  0753  00F0               	movwf	(??_uart_read+0)+0
  2812  0754  0770               	addwf	(??_uart_read+0)+0,w
  2813  0755  00F1               	movwf	(??_uart_read+1)+0
  2814  0756  0871               	movf	(??_uart_read+1)+0,w
  2815  0757  00F5               	movwf	(uart_read@i)
  2816  0758  08F5               	movf	(uart_read@i),f
  2817  0759  1D03               	skipz
  2818  075A  2F5C               	goto	u961
  2819  075B  2F5D               	goto	u960
  2820  075C                     u961:
  2821  075C  2F41               	goto	l1412
  2822  075D                     u960:
  2823  075D  2F5E               	goto	l1420
  2824                           	
  2825  075E                     l234:	
  2826                           	line	504
  2827                           	
  2828  075E                     l1420:	
  2829                           ;uart_io.c: 503: }
  2830                           ;uart_io.c: 504: _delay((20000000/4)/9600/2);
  2831                           	opt asmopt_off
  2832  075E  3056               movlw	86
  2833  075F  00F0               movwf	(??_uart_read+0)+0,f
  2834  0760                     u1627:
  2835  0760  0BF0               decfsz	(??_uart_read+0)+0,f
  2836  0761  2F60               	goto	u1627
  2837  0762  0000               	nop
  2838                           opt asmopt_on
  2839                           
  2840                           	line	505
  2841                           ;uart_io.c: 505: break;
  2842  0763  2FFD               	goto	l1466
  2843                           	line	506
  2844                           ;uart_io.c: 506: case 7:
  2845                           	
  2846  0764                     l237:	
  2847                           	line	507
  2848                           ;uart_io.c: 507: while(dummy_byte);
  2849  0764  2F66               	goto	l1422
  2850                           	
  2851  0765                     l239:	
  2852  0765  2F66               	goto	l1422
  2853                           	
  2854  0766                     l238:	
  2855                           	
  2856  0766                     l1422:	
  2857  0766  08FD               	movf	(_dummy_byte),f
  2858  0767  1D03               	skipz
  2859  0768  2F6A               	goto	u971
  2860  0769  2F6B               	goto	u970
  2861  076A                     u971:
  2862  076A  2F66               	goto	l1422
  2863  076B                     u970:
  2864  076B  2F6C               	goto	l1424
  2865                           	
  2866  076C                     l240:	
  2867                           	line	508
  2868                           	
  2869  076C                     l1424:	
  2870                           ;uart_io.c: 508: _delay((20000000/4)/9600-10);
  2871                           	opt asmopt_off
  2872  076C  30A9               movlw	169
  2873  076D  00F0               movwf	(??_uart_read+0)+0,f
  2874  076E                     u1637:
  2875  076E  0BF0               decfsz	(??_uart_read+0)+0,f
  2876  076F  2F6E               	goto	u1637
  2877  0770  2F71               	nop2	;nop
  2878                           opt asmopt_on
  2879                           
  2880                           	line	509
  2881                           ;uart_io.c: 509: _delay((20000000/4)/9600/2);
  2882                           	opt asmopt_off
  2883  0771  3056               movlw	86
  2884  0772  00F0               movwf	(??_uart_read+0)+0,f
  2885  0773                     u1647:
  2886  0773  0BF0               decfsz	(??_uart_read+0)+0,f
  2887  0774  2F73               	goto	u1647
  2888  0775  0000               	nop
  2889                           opt asmopt_on
  2890                           
  2891                           	line	510
  2892                           	
  2893  0776                     l1426:	
  2894                           ;uart_io.c: 510: for(i=1;i>0;i=i<<1)
  2895  0776  01F5               	clrf	(uart_read@i)
  2896  0777  1403               	bsf	status,0
  2897  0778  0DF5               	rlf	(uart_read@i),f
  2898                           	
  2899  0779                     l1428:	
  2900  0779  08F5               	movf	(uart_read@i),f
  2901  077A  1D03               	skipz
  2902  077B  2F7D               	goto	u981
  2903  077C  2F7E               	goto	u980
  2904  077D                     u981:
  2905  077D  2F80               	goto	l1432
  2906  077E                     u980:
  2907  077E  2F9D               	goto	l1440
  2908                           	
  2909  077F                     l1430:	
  2910  077F  2F9D               	goto	l1440
  2911                           	line	511
  2912                           	
  2913  0780                     l241:	
  2914                           	line	512
  2915                           	
  2916  0780                     l1432:	
  2917                           ;uart_io.c: 511: {
  2918                           ;uart_io.c: 512: if(dummy_byte==1)
  2919  0780  087D               	movf	(_dummy_byte),w
  2920  0781  3A01               	xorlw	01h
  2921  0782  1D03               	skipz
  2922  0783  2F85               	goto	u991
  2923  0784  2F86               	goto	u990
  2924  0785                     u991:
  2925  0785  2F8C               	goto	l1436
  2926  0786                     u990:
  2927                           	line	514
  2928                           	
  2929  0786                     l1434:	
  2930                           ;uart_io.c: 513: {
  2931                           ;uart_io.c: 514: result|=i;
  2932  0786  0875               	movf	(uart_read@i),w
  2933  0787  00F0               	movwf	(??_uart_read+0)+0
  2934  0788  0870               	movf	(??_uart_read+0)+0,w
  2935  0789  04F4               	iorwf	(uart_read@result),f
  2936                           	line	515
  2937                           ;uart_io.c: 515: }
  2938  078A  2F8C               	goto	l1436
  2939                           	line	516
  2940                           	
  2941  078B                     l243:	
  2942  078B  2F8C               	goto	l1436
  2943                           	line	519
  2944                           	
  2945  078C                     l244:	
  2946                           	line	520
  2947                           	
  2948  078C                     l1436:	
  2949                           ;uart_io.c: 519: }
  2950                           ;uart_io.c: 520: _delay((20000000/4)/9600-20);
  2951                           	opt asmopt_off
  2952  078C  30A6               movlw	166
  2953  078D  00F0               movwf	(??_uart_read+0)+0,f
  2954  078E                     u1657:
  2955  078E  0BF0               decfsz	(??_uart_read+0)+0,f
  2956  078F  2F8E               	goto	u1657
  2957  0790  0000               	nop
  2958                           opt asmopt_on
  2959                           
  2960                           	line	510
  2961                           	
  2962  0791                     l1438:	
  2963  0791  0875               	movf	(uart_read@i),w
  2964  0792  00F0               	movwf	(??_uart_read+0)+0
  2965  0793  0770               	addwf	(??_uart_read+0)+0,w
  2966  0794  00F1               	movwf	(??_uart_read+1)+0
  2967  0795  0871               	movf	(??_uart_read+1)+0,w
  2968  0796  00F5               	movwf	(uart_read@i)
  2969  0797  08F5               	movf	(uart_read@i),f
  2970  0798  1D03               	skipz
  2971  0799  2F9B               	goto	u1001
  2972  079A  2F9C               	goto	u1000
  2973  079B                     u1001:
  2974  079B  2F80               	goto	l1432
  2975  079C                     u1000:
  2976  079C  2F9D               	goto	l1440
  2977                           	
  2978  079D                     l242:	
  2979                           	line	522
  2980                           	
  2981  079D                     l1440:	
  2982                           ;uart_io.c: 521: }
  2983                           ;uart_io.c: 522: _delay((20000000/4)/9600/2);
  2984                           	opt asmopt_off
  2985  079D  3056               movlw	86
  2986  079E  00F0               movwf	(??_uart_read+0)+0,f
  2987  079F                     u1667:
  2988  079F  0BF0               decfsz	(??_uart_read+0)+0,f
  2989  07A0  2F9F               	goto	u1667
  2990  07A1  0000               	nop
  2991                           opt asmopt_on
  2992                           
  2993                           	line	523
  2994                           ;uart_io.c: 523: break;
  2995  07A2  2FFD               	goto	l1466
  2996                           	line	524
  2997                           ;uart_io.c: 524: case 8:
  2998                           	
  2999  07A3                     l245:	
  3000                           	line	525
  3001                           ;uart_io.c: 525: while(dummy_byte);
  3002  07A3  2FA5               	goto	l1442
  3003                           	
  3004  07A4                     l247:	
  3005  07A4  2FA5               	goto	l1442
  3006                           	
  3007  07A5                     l246:	
  3008                           	
  3009  07A5                     l1442:	
  3010  07A5  08FD               	movf	(_dummy_byte),f
  3011  07A6  1D03               	skipz
  3012  07A7  2FA9               	goto	u1011
  3013  07A8  2FAA               	goto	u1010
  3014  07A9                     u1011:
  3015  07A9  2FA5               	goto	l1442
  3016  07AA                     u1010:
  3017  07AA  2FAB               	goto	l1444
  3018                           	
  3019  07AB                     l248:	
  3020                           	line	526
  3021                           	
  3022  07AB                     l1444:	
  3023                           ;uart_io.c: 526: _delay((20000000/4)/9600-10);
  3024                           	opt asmopt_off
  3025  07AB  30A9               movlw	169
  3026  07AC  00F0               movwf	(??_uart_read+0)+0,f
  3027  07AD                     u1677:
  3028  07AD  0BF0               decfsz	(??_uart_read+0)+0,f
  3029  07AE  2FAD               	goto	u1677
  3030  07AF  2FB0               	nop2	;nop
  3031                           opt asmopt_on
  3032                           
  3033                           	line	527
  3034                           ;uart_io.c: 527: _delay((20000000/4)/9600/2);
  3035                           	opt asmopt_off
  3036  07B0  3056               movlw	86
  3037  07B1  00F0               movwf	(??_uart_read+0)+0,f
  3038  07B2                     u1687:
  3039  07B2  0BF0               decfsz	(??_uart_read+0)+0,f
  3040  07B3  2FB2               	goto	u1687
  3041  07B4  0000               	nop
  3042                           opt asmopt_on
  3043                           
  3044                           	line	528
  3045                           	
  3046  07B5                     l1446:	
  3047                           ;uart_io.c: 528: for(i=1;i>0;i=i<<1)
  3048  07B5  01F5               	clrf	(uart_read@i)
  3049  07B6  1403               	bsf	status,0
  3050  07B7  0DF5               	rlf	(uart_read@i),f
  3051                           	
  3052  07B8                     l1448:	
  3053  07B8  08F5               	movf	(uart_read@i),f
  3054  07B9  1D03               	skipz
  3055  07BA  2FBC               	goto	u1021
  3056  07BB  2FBD               	goto	u1020
  3057  07BC                     u1021:
  3058  07BC  2FBF               	goto	l1452
  3059  07BD                     u1020:
  3060  07BD  2FDC               	goto	l1460
  3061                           	
  3062  07BE                     l1450:	
  3063  07BE  2FDC               	goto	l1460
  3064                           	line	529
  3065                           	
  3066  07BF                     l249:	
  3067                           	line	530
  3068                           	
  3069  07BF                     l1452:	
  3070                           ;uart_io.c: 529: {
  3071                           ;uart_io.c: 530: if(dummy_byte==1)
  3072  07BF  087D               	movf	(_dummy_byte),w
  3073  07C0  3A01               	xorlw	01h
  3074  07C1  1D03               	skipz
  3075  07C2  2FC4               	goto	u1031
  3076  07C3  2FC5               	goto	u1030
  3077  07C4                     u1031:
  3078  07C4  2FCB               	goto	l1456
  3079  07C5                     u1030:
  3080                           	line	532
  3081                           	
  3082  07C5                     l1454:	
  3083                           ;uart_io.c: 531: {
  3084                           ;uart_io.c: 532: result|=i;
  3085  07C5  0875               	movf	(uart_read@i),w
  3086  07C6  00F0               	movwf	(??_uart_read+0)+0
  3087  07C7  0870               	movf	(??_uart_read+0)+0,w
  3088  07C8  04F4               	iorwf	(uart_read@result),f
  3089                           	line	533
  3090                           ;uart_io.c: 533: }
  3091  07C9  2FCB               	goto	l1456
  3092                           	line	534
  3093                           	
  3094  07CA                     l251:	
  3095  07CA  2FCB               	goto	l1456
  3096                           	line	537
  3097                           	
  3098  07CB                     l252:	
  3099                           	line	538
  3100                           	
  3101  07CB                     l1456:	
  3102                           ;uart_io.c: 537: }
  3103                           ;uart_io.c: 538: _delay((20000000/4)/9600-20);
  3104                           	opt asmopt_off
  3105  07CB  30A6               movlw	166
  3106  07CC  00F0               movwf	(??_uart_read+0)+0,f
  3107  07CD                     u1697:
  3108  07CD  0BF0               decfsz	(??_uart_read+0)+0,f
  3109  07CE  2FCD               	goto	u1697
  3110  07CF  0000               	nop
  3111                           opt asmopt_on
  3112                           
  3113                           	line	528
  3114                           	
  3115  07D0                     l1458:	
  3116  07D0  0875               	movf	(uart_read@i),w
  3117  07D1  00F0               	movwf	(??_uart_read+0)+0
  3118  07D2  0770               	addwf	(??_uart_read+0)+0,w
  3119  07D3  00F1               	movwf	(??_uart_read+1)+0
  3120  07D4  0871               	movf	(??_uart_read+1)+0,w
  3121  07D5  00F5               	movwf	(uart_read@i)
  3122  07D6  08F5               	movf	(uart_read@i),f
  3123  07D7  1D03               	skipz
  3124  07D8  2FDA               	goto	u1041
  3125  07D9  2FDB               	goto	u1040
  3126  07DA                     u1041:
  3127  07DA  2FBF               	goto	l1452
  3128  07DB                     u1040:
  3129  07DB  2FDC               	goto	l1460
  3130                           	
  3131  07DC                     l250:	
  3132                           	line	540
  3133                           	
  3134  07DC                     l1460:	
  3135                           ;uart_io.c: 539: }
  3136                           ;uart_io.c: 540: _delay((20000000/4)/9600/2);
  3137                           	opt asmopt_off
  3138  07DC  3056               movlw	86
  3139  07DD  00F0               movwf	(??_uart_read+0)+0,f
  3140  07DE                     u1707:
  3141  07DE  0BF0               decfsz	(??_uart_read+0)+0,f
  3142  07DF  2FDE               	goto	u1707
  3143  07E0  0000               	nop
  3144                           opt asmopt_on
  3145                           
  3146                           	line	541
  3147                           ;uart_io.c: 541: break;
  3148  07E1  2FFD               	goto	l1466
  3149                           	line	543
  3150                           	
  3151  07E2                     l1462:	
  3152                           ;uart_io.c: 543: }
  3153  07E2  2FFD               	goto	l1466
  3154                           	line	395
  3155                           	
  3156  07E3                     l187:	
  3157                           	
  3158  07E3                     l1464:	
  3159  07E3  0873               	movf	(uart_read@channel),w
  3160                           	; Switch size 1, requested type "space"
  3161                           ; Number of cases is 8, Range of values is 1 to 8
  3162                           ; switch strategies available:
  3163                           ; Name         Instructions Cycles
  3164                           ; simple_byte           25    13 (average)
  3165                           ; direct_byte           35    11 (fixed)
  3166                           ; jumptable            263     9 (fixed)
  3167                           ;	Chosen strategy is simple_byte
  3168                           
  3169                           	opt asmopt_off
  3170  07E4  3A01               	xorlw	1^0	; case 1
  3171  07E5  1903               	skipnz
  3172  07E6  2DEC               	goto	l189
  3173  07E7  3A03               	xorlw	2^1	; case 2
  3174  07E8  1903               	skipnz
  3175  07E9  2E2B               	goto	l198
  3176  07EA  3A01               	xorlw	3^2	; case 3
  3177  07EB  1903               	skipnz
  3178  07EC  2E69               	goto	l205
  3179  07ED  3A07               	xorlw	4^3	; case 4
  3180  07EE  1903               	skipnz
  3181  07EF  2EA9               	goto	l1362
  3182  07F0  3A01               	xorlw	5^4	; case 5
  3183  07F1  1903               	skipnz
  3184  07F2  2EE8               	goto	l1382
  3185  07F3  3A03               	xorlw	6^5	; case 6
  3186  07F4  1903               	skipnz
  3187  07F5  2F27               	goto	l1402
  3188  07F6  3A01               	xorlw	7^6	; case 7
  3189  07F7  1903               	skipnz
  3190  07F8  2F66               	goto	l1422
  3191  07F9  3A0F               	xorlw	8^7	; case 8
  3192  07FA  1903               	skipnz
  3193  07FB  2FA5               	goto	l1442
  3194  07FC  2FFD               	goto	l1466
  3195                           	opt asmopt_on
  3196                           
  3197                           	line	543
  3198                           	
  3199  07FD                     l196:	
  3200                           	line	544
  3201                           	
  3202  07FD                     l1466:	
  3203                           ;uart_io.c: 544: return result;
  3204  07FD  0874               	movf	(uart_read@result),w
  3205  07FE  2FFF               	goto	l253
  3206                           	
  3207  07FF                     l1468:	
  3208                           	line	545
  3209                           	
  3210  07FF                     l253:	
  3211  07FF  0008               	return
  3212                           	opt stack 0
  3213                           GLOBAL	__end_of_uart_read
  3214  0800                     	__end_of_uart_read:
  3215                           	signat	_uart_read,4217
  3216                           	global	_uart_write
  3217                           
  3218 ;; *************** function _uart_write *****************
  3219 ;; Defined at:
  3220 ;;		line 212 in file "uart_io.c"
  3221 ;; Parameters:    Size  Location     Type
  3222 ;;  channel         1    wreg     unsigned char 
  3223 ;;  data            1    0[COMMON] unsigned char 
  3224 ;; Auto vars:     Size  Location     Type
  3225 ;;  channel         1    3[COMMON] unsigned char 
  3226 ;;  i               1    4[COMMON] unsigned char 
  3227 ;; Return value:  Size  Location     Type
  3228 ;;		None               void
  3229 ;; Registers used:
  3230 ;;		wreg, fsr0l, fsr0h, status,2, status,0
  3231 ;; Tracked objects:
  3232 ;;		On entry : 0/0
  3233 ;;		On exit  : 0/0
  3234 ;;		Unchanged: 0/0
  3235 ;; Data sizes:     COMMON   BANK0   BANK1   BANK3   BANK2
  3236 ;;      Params:         1       0       0       0       0
  3237 ;;      Locals:         2       0       0       0       0
  3238 ;;      Temps:          2       0       0       0       0
  3239 ;;      Totals:         5       0       0       0       0
  3240 ;;Total ram usage:        5 bytes
  3241 ;; Hardware stack levels used:    1
  3242 ;; This function calls:
  3243 ;;		Nothing
  3244 ;; This function is called by:
  3245 ;;		_main
  3246 ;; This function uses a non-reentrant model
  3247 ;;
  3248                           psect	text199,local,class=CODE,delta=2,merge=1
  3249                           global __ptext199
  3250  03E7                     __ptext199:
  3251                           psect	text199
  3252                           	file	"uart_io.c"
  3253                           	line	212
  3254                           	global	__size_of_uart_write
  3255  0200                     	__size_of_uart_write	equ	__end_of_uart_write-_uart_write
  3256                           	
  3257  03E7                     _uart_write:	
  3258                           	opt	stack 7
  3259                           ; Regs used in _uart_write: [wreg-fsr0h+status,2+status,0]
  3260                           ;uart_write@channel stored from wreg
  3261  03E7  00F3               	movwf	(uart_write@channel)
  3262                           	line	215
  3263                           	
  3264  03E8                     l1470:	
  3265                           ;uart_io.c: 213: unsigned char i;
  3266                           ;uart_io.c: 215: switch(channel)
  3267  03E8  2DCC               	goto	l1674
  3268                           	line	217
  3269                           ;uart_io.c: 216: {
  3270                           ;uart_io.c: 217: case 1:
  3271                           	
  3272  03E9                     l143:	
  3273                           	line	218
  3274                           ;uart_io.c: 218: RC2=0;
  3275  03E9  1283               	bcf	status, 5	;RP0=0, select bank0
  3276  03EA  1303               	bcf	status, 6	;RP1=0, select bank0
  3277  03EB  1107               	bcf	(58/8),(58)&7	;volatile
  3278                           	line	219
  3279                           	
  3280  03EC                     l1472:	
  3281                           ;uart_io.c: 219: _delay((20000000/4)/9600-15);
  3282                           	opt asmopt_off
  3283  03EC  30A8               movlw	168
  3284  03ED  00F1               movwf	(??_uart_write+0)+0,f
  3285  03EE                     u1717:
  3286  03EE  0BF1               decfsz	(??_uart_write+0)+0,f
  3287  03EF  2BEE               	goto	u1717
  3288                           opt asmopt_on
  3289                           
  3290                           	line	220
  3291                           	
  3292  03F0                     l1474:	
  3293                           ;uart_io.c: 220: for(i=1;i>0;i=i<<1)
  3294  03F0  01F4               	clrf	(uart_write@i)
  3295  03F1  1403               	bsf	status,0
  3296  03F2  0DF4               	rlf	(uart_write@i),f
  3297                           	
  3298  03F3                     l1476:	
  3299  03F3  08F4               	movf	(uart_write@i),f
  3300  03F4  1D03               	skipz
  3301  03F5  2BF7               	goto	u1051
  3302  03F6  2BF8               	goto	u1050
  3303  03F7                     u1051:
  3304  03F7  2BFA               	goto	l1480
  3305  03F8                     u1050:
  3306  03F8  2C1D               	goto	l1490
  3307                           	
  3308  03F9                     l1478:	
  3309  03F9  2C1D               	goto	l1490
  3310                           	line	221
  3311                           	
  3312  03FA                     l144:	
  3313                           	line	222
  3314                           	
  3315  03FA                     l1480:	
  3316                           ;uart_io.c: 221: {
  3317                           ;uart_io.c: 222: if((data&i)==0)
  3318  03FA  0870               	movf	(uart_write@data),w
  3319  03FB  0574               	andwf	(uart_write@i),w
  3320  03FC  1D03               	btfss	status,2
  3321  03FD  2BFF               	goto	u1061
  3322  03FE  2C00               	goto	u1060
  3323  03FF                     u1061:
  3324  03FF  2C08               	goto	l146
  3325  0400                     u1060:
  3326                           	line	224
  3327                           	
  3328  0400                     l1482:	
  3329                           ;uart_io.c: 223: {
  3330                           ;uart_io.c: 224: RC2=0;
  3331  0400  1283               	bcf	status, 5	;RP0=0, select bank0
  3332  0401  1303               	bcf	status, 6	;RP1=0, select bank0
  3333  0402  1107               	bcf	(58/8),(58)&7	;volatile
  3334                           	line	225
  3335                           	
  3336  0403                     l1484:	
  3337                           ;uart_io.c: 225: _delay((20000000/4)/9600-21);
  3338                           	opt asmopt_off
  3339  0403  30A6               movlw	166
  3340  0404  00F1               movwf	(??_uart_write+0)+0,f
  3341  0405                     u1727:
  3342  0405  0BF1               decfsz	(??_uart_write+0)+0,f
  3343  0406  2C05               	goto	u1727
  3344                           opt asmopt_on
  3345                           
  3346                           	line	226
  3347                           ;uart_io.c: 226: }
  3348  0407  2C11               	goto	l1488
  3349                           	line	227
  3350                           	
  3351  0408                     l146:	
  3352                           	line	229
  3353                           ;uart_io.c: 227: else
  3354                           ;uart_io.c: 228: {
  3355                           ;uart_io.c: 229: RC2=1;
  3356  0408  1283               	bcf	status, 5	;RP0=0, select bank0
  3357  0409  1303               	bcf	status, 6	;RP1=0, select bank0
  3358  040A  1507               	bsf	(58/8),(58)&7	;volatile
  3359                           	line	230
  3360                           	
  3361  040B                     l1486:	
  3362                           ;uart_io.c: 230: _delay((20000000/4)/9600-20);
  3363                           	opt asmopt_off
  3364  040B  30A6               movlw	166
  3365  040C  00F1               movwf	(??_uart_write+0)+0,f
  3366  040D                     u1737:
  3367  040D  0BF1               decfsz	(??_uart_write+0)+0,f
  3368  040E  2C0D               	goto	u1737
  3369  040F  0000               	nop
  3370                           opt asmopt_on
  3371                           
  3372  0410  2C11               	goto	l1488
  3373                           	line	231
  3374                           	
  3375  0411                     l147:	
  3376                           	line	220
  3377                           	
  3378  0411                     l1488:	
  3379  0411  0874               	movf	(uart_write@i),w
  3380  0412  00F1               	movwf	(??_uart_write+0)+0
  3381  0413  0771               	addwf	(??_uart_write+0)+0,w
  3382  0414  00F2               	movwf	(??_uart_write+1)+0
  3383  0415  0872               	movf	(??_uart_write+1)+0,w
  3384  0416  00F4               	movwf	(uart_write@i)
  3385  0417  08F4               	movf	(uart_write@i),f
  3386  0418  1D03               	skipz
  3387  0419  2C1B               	goto	u1071
  3388  041A  2C1C               	goto	u1070
  3389  041B                     u1071:
  3390  041B  2BFA               	goto	l1480
  3391  041C                     u1070:
  3392  041C  2C1D               	goto	l1490
  3393                           	
  3394  041D                     l145:	
  3395                           	line	233
  3396                           	
  3397  041D                     l1490:	
  3398                           ;uart_io.c: 231: }
  3399                           ;uart_io.c: 232: }
  3400                           ;uart_io.c: 233: _delay(8);
  3401                           		opt asmopt_off
  3402  041D  2C1E               	nop2	;2 cycle nop
  3403                           	opt asmopt_on
  3404                           	opt asmopt_off
  3405  041E  2C1F               	nop2	;2 cycle nop
  3406                           	opt asmopt_on
  3407                           	opt asmopt_off
  3408  041F  2C20               	nop2	;2 cycle nop
  3409                           	opt asmopt_on
  3410                           	opt asmopt_off
  3411  0420  2C21               	nop2	;2 cycle nop
  3412                           	opt asmopt_on
  3413                           
  3414                           	line	234
  3415                           	
  3416  0421                     l1492:	
  3417                           ;uart_io.c: 234: RC2=1;
  3418  0421  1283               	bcf	status, 5	;RP0=0, select bank0
  3419  0422  1303               	bcf	status, 6	;RP1=0, select bank0
  3420  0423  1507               	bsf	(58/8),(58)&7	;volatile
  3421                           	line	235
  3422                           ;uart_io.c: 235: _delay((20000000/4)/9600-3);
  3423                           	opt asmopt_off
  3424  0424  30AC               movlw	172
  3425  0425  00F1               movwf	(??_uart_write+0)+0,f
  3426  0426                     u1747:
  3427  0426  0BF1               decfsz	(??_uart_write+0)+0,f
  3428  0427  2C26               	goto	u1747
  3429                           opt asmopt_on
  3430                           
  3431                           	line	236
  3432                           ;uart_io.c: 236: break;
  3433  0428  2DE6               	goto	l184
  3434                           	line	238
  3435                           ;uart_io.c: 238: case 2:
  3436                           	
  3437  0429                     l149:	
  3438                           	line	239
  3439                           ;uart_io.c: 239: RC0=0;
  3440  0429  1283               	bcf	status, 5	;RP0=0, select bank0
  3441  042A  1303               	bcf	status, 6	;RP1=0, select bank0
  3442  042B  1007               	bcf	(56/8),(56)&7	;volatile
  3443                           	line	240
  3444                           	
  3445  042C                     l1494:	
  3446                           ;uart_io.c: 240: _delay((20000000/4)/9600-15);
  3447                           	opt asmopt_off
  3448  042C  30A8               movlw	168
  3449  042D  00F1               movwf	(??_uart_write+0)+0,f
  3450  042E                     u1757:
  3451  042E  0BF1               decfsz	(??_uart_write+0)+0,f
  3452  042F  2C2E               	goto	u1757
  3453                           opt asmopt_on
  3454                           
  3455                           	line	241
  3456                           	
  3457  0430                     l1496:	
  3458                           ;uart_io.c: 241: for(i=1;i>0;i=i<<1)
  3459  0430  01F4               	clrf	(uart_write@i)
  3460  0431  1403               	bsf	status,0
  3461  0432  0DF4               	rlf	(uart_write@i),f
  3462                           	
  3463  0433                     l1498:	
  3464  0433  08F4               	movf	(uart_write@i),f
  3465  0434  1D03               	skipz
  3466  0435  2C37               	goto	u1081
  3467  0436  2C38               	goto	u1080
  3468  0437                     u1081:
  3469  0437  2C3A               	goto	l1502
  3470  0438                     u1080:
  3471  0438  2C5D               	goto	l1512
  3472                           	
  3473  0439                     l1500:	
  3474  0439  2C5D               	goto	l1512
  3475                           	line	242
  3476                           	
  3477  043A                     l150:	
  3478                           	line	243
  3479                           	
  3480  043A                     l1502:	
  3481                           ;uart_io.c: 242: {
  3482                           ;uart_io.c: 243: if((data&i)==0)
  3483  043A  0870               	movf	(uart_write@data),w
  3484  043B  0574               	andwf	(uart_write@i),w
  3485  043C  1D03               	btfss	status,2
  3486  043D  2C3F               	goto	u1091
  3487  043E  2C40               	goto	u1090
  3488  043F                     u1091:
  3489  043F  2C48               	goto	l152
  3490  0440                     u1090:
  3491                           	line	245
  3492                           	
  3493  0440                     l1504:	
  3494                           ;uart_io.c: 244: {
  3495                           ;uart_io.c: 245: RC0=0;
  3496  0440  1283               	bcf	status, 5	;RP0=0, select bank0
  3497  0441  1303               	bcf	status, 6	;RP1=0, select bank0
  3498  0442  1007               	bcf	(56/8),(56)&7	;volatile
  3499                           	line	246
  3500                           	
  3501  0443                     l1506:	
  3502                           ;uart_io.c: 246: _delay((20000000/4)/9600-21);
  3503                           	opt asmopt_off
  3504  0443  30A6               movlw	166
  3505  0444  00F1               movwf	(??_uart_write+0)+0,f
  3506  0445                     u1767:
  3507  0445  0BF1               decfsz	(??_uart_write+0)+0,f
  3508  0446  2C45               	goto	u1767
  3509                           opt asmopt_on
  3510                           
  3511                           	line	247
  3512                           ;uart_io.c: 247: }
  3513  0447  2C51               	goto	l1510
  3514                           	line	248
  3515                           	
  3516  0448                     l152:	
  3517                           	line	250
  3518                           ;uart_io.c: 248: else
  3519                           ;uart_io.c: 249: {
  3520                           ;uart_io.c: 250: RC0=1;
  3521  0448  1283               	bcf	status, 5	;RP0=0, select bank0
  3522  0449  1303               	bcf	status, 6	;RP1=0, select bank0
  3523  044A  1407               	bsf	(56/8),(56)&7	;volatile
  3524                           	line	251
  3525                           	
  3526  044B                     l1508:	
  3527                           ;uart_io.c: 251: _delay((20000000/4)/9600-20);
  3528                           	opt asmopt_off
  3529  044B  30A6               movlw	166
  3530  044C  00F1               movwf	(??_uart_write+0)+0,f
  3531  044D                     u1777:
  3532  044D  0BF1               decfsz	(??_uart_write+0)+0,f
  3533  044E  2C4D               	goto	u1777
  3534  044F  0000               	nop
  3535                           opt asmopt_on
  3536                           
  3537  0450  2C51               	goto	l1510
  3538                           	line	252
  3539                           	
  3540  0451                     l153:	
  3541                           	line	241
  3542                           	
  3543  0451                     l1510:	
  3544  0451  0874               	movf	(uart_write@i),w
  3545  0452  00F1               	movwf	(??_uart_write+0)+0
  3546  0453  0771               	addwf	(??_uart_write+0)+0,w
  3547  0454  00F2               	movwf	(??_uart_write+1)+0
  3548  0455  0872               	movf	(??_uart_write+1)+0,w
  3549  0456  00F4               	movwf	(uart_write@i)
  3550  0457  08F4               	movf	(uart_write@i),f
  3551  0458  1D03               	skipz
  3552  0459  2C5B               	goto	u1101
  3553  045A  2C5C               	goto	u1100
  3554  045B                     u1101:
  3555  045B  2C3A               	goto	l1502
  3556  045C                     u1100:
  3557  045C  2C5D               	goto	l1512
  3558                           	
  3559  045D                     l151:	
  3560                           	line	254
  3561                           	
  3562  045D                     l1512:	
  3563                           ;uart_io.c: 252: }
  3564                           ;uart_io.c: 253: }
  3565                           ;uart_io.c: 254: _delay(8);
  3566                           		opt asmopt_off
  3567  045D  2C5E               	nop2	;2 cycle nop
  3568                           	opt asmopt_on
  3569                           	opt asmopt_off
  3570  045E  2C5F               	nop2	;2 cycle nop
  3571                           	opt asmopt_on
  3572                           	opt asmopt_off
  3573  045F  2C60               	nop2	;2 cycle nop
  3574                           	opt asmopt_on
  3575                           	opt asmopt_off
  3576  0460  2C61               	nop2	;2 cycle nop
  3577                           	opt asmopt_on
  3578                           
  3579                           	line	255
  3580                           	
  3581  0461                     l1514:	
  3582                           ;uart_io.c: 255: RC0=1;
  3583  0461  1283               	bcf	status, 5	;RP0=0, select bank0
  3584  0462  1303               	bcf	status, 6	;RP1=0, select bank0
  3585  0463  1407               	bsf	(56/8),(56)&7	;volatile
  3586                           	line	256
  3587                           ;uart_io.c: 256: _delay((20000000/4)/9600-3);
  3588                           	opt asmopt_off
  3589  0464  30AC               movlw	172
  3590  0465  00F1               movwf	(??_uart_write+0)+0,f
  3591  0466                     u1787:
  3592  0466  0BF1               decfsz	(??_uart_write+0)+0,f
  3593  0467  2C66               	goto	u1787
  3594                           opt asmopt_on
  3595                           
  3596                           	line	257
  3597                           ;uart_io.c: 257: break;
  3598  0468  2DE6               	goto	l184
  3599                           	line	259
  3600                           ;uart_io.c: 259: case 3:
  3601                           	
  3602  0469                     l154:	
  3603                           	line	260
  3604                           ;uart_io.c: 260: dummy_byte=0;
  3605  0469  01FD               	clrf	(_dummy_byte)
  3606                           	line	261
  3607                           	
  3608  046A                     l1516:	
  3609                           ;uart_io.c: 261: _delay((20000000/4)/9600-15);
  3610                           	opt asmopt_off
  3611  046A  30A8               movlw	168
  3612  046B  00F1               movwf	(??_uart_write+0)+0,f
  3613  046C                     u1797:
  3614  046C  0BF1               decfsz	(??_uart_write+0)+0,f
  3615  046D  2C6C               	goto	u1797
  3616                           opt asmopt_on
  3617                           
  3618                           	line	262
  3619                           	
  3620  046E                     l1518:	
  3621                           ;uart_io.c: 262: for(i=1;i>0;i=i<<1)
  3622  046E  01F4               	clrf	(uart_write@i)
  3623  046F  1403               	bsf	status,0
  3624  0470  0DF4               	rlf	(uart_write@i),f
  3625                           	
  3626  0471                     l1520:	
  3627  0471  08F4               	movf	(uart_write@i),f
  3628  0472  1D03               	skipz
  3629  0473  2C75               	goto	u1111
  3630  0474  2C76               	goto	u1110
  3631  0475                     u1111:
  3632  0475  2C78               	goto	l1524
  3633  0476                     u1110:
  3634  0476  2C98               	goto	l1536
  3635                           	
  3636  0477                     l1522:	
  3637  0477  2C98               	goto	l1536
  3638                           	line	263
  3639                           	
  3640  0478                     l155:	
  3641                           	line	264
  3642                           	
  3643  0478                     l1524:	
  3644                           ;uart_io.c: 263: {
  3645                           ;uart_io.c: 264: if((data&i)==0)
  3646  0478  0870               	movf	(uart_write@data),w
  3647  0479  0574               	andwf	(uart_write@i),w
  3648  047A  1D03               	btfss	status,2
  3649  047B  2C7D               	goto	u1121
  3650  047C  2C7E               	goto	u1120
  3651  047D                     u1121:
  3652  047D  2C84               	goto	l1530
  3653  047E                     u1120:
  3654                           	line	266
  3655                           	
  3656  047E                     l1526:	
  3657                           ;uart_io.c: 265: {
  3658                           ;uart_io.c: 266: dummy_byte=0;
  3659  047E  01FD               	clrf	(_dummy_byte)
  3660                           	line	267
  3661                           	
  3662  047F                     l1528:	
  3663                           ;uart_io.c: 267: _delay((20000000/4)/9600-21);
  3664                           	opt asmopt_off
  3665  047F  30A6               movlw	166
  3666  0480  00F1               movwf	(??_uart_write+0)+0,f
  3667  0481                     u1807:
  3668  0481  0BF1               decfsz	(??_uart_write+0)+0,f
  3669  0482  2C81               	goto	u1807
  3670                           opt asmopt_on
  3671                           
  3672                           	line	268
  3673                           ;uart_io.c: 268: }
  3674  0483  2C8C               	goto	l158
  3675                           	line	269
  3676                           	
  3677  0484                     l157:	
  3678                           	line	271
  3679                           	
  3680  0484                     l1530:	
  3681                           ;uart_io.c: 269: else
  3682                           ;uart_io.c: 270: {
  3683                           ;uart_io.c: 271: dummy_byte=1;
  3684  0484  01FD               	clrf	(_dummy_byte)
  3685  0485  1403               	bsf	status,0
  3686  0486  0DFD               	rlf	(_dummy_byte),f
  3687                           	line	272
  3688                           	
  3689  0487                     l1532:	
  3690                           ;uart_io.c: 272: _delay((20000000/4)/9600-20);
  3691                           	opt asmopt_off
  3692  0487  30A6               movlw	166
  3693  0488  00F1               movwf	(??_uart_write+0)+0,f
  3694  0489                     u1817:
  3695  0489  0BF1               decfsz	(??_uart_write+0)+0,f
  3696  048A  2C89               	goto	u1817
  3697  048B  0000               	nop
  3698                           opt asmopt_on
  3699                           
  3700                           	line	273
  3701                           	
  3702  048C                     l158:	
  3703                           	line	262
  3704  048C  0874               	movf	(uart_write@i),w
  3705  048D  00F1               	movwf	(??_uart_write+0)+0
  3706  048E  0771               	addwf	(??_uart_write+0)+0,w
  3707  048F  00F2               	movwf	(??_uart_write+1)+0
  3708  0490  0872               	movf	(??_uart_write+1)+0,w
  3709  0491  00F4               	movwf	(uart_write@i)
  3710                           	
  3711  0492                     l1534:	
  3712  0492  08F4               	movf	(uart_write@i),f
  3713  0493  1D03               	skipz
  3714  0494  2C96               	goto	u1131
  3715  0495  2C97               	goto	u1130
  3716  0496                     u1131:
  3717  0496  2C78               	goto	l1524
  3718  0497                     u1130:
  3719  0497  2C98               	goto	l1536
  3720                           	
  3721  0498                     l156:	
  3722                           	line	275
  3723                           	
  3724  0498                     l1536:	
  3725                           ;uart_io.c: 273: }
  3726                           ;uart_io.c: 274: }
  3727                           ;uart_io.c: 275: _delay(8);
  3728                           		opt asmopt_off
  3729  0498  2C99               	nop2	;2 cycle nop
  3730                           	opt asmopt_on
  3731                           	opt asmopt_off
  3732  0499  2C9A               	nop2	;2 cycle nop
  3733                           	opt asmopt_on
  3734                           	opt asmopt_off
  3735  049A  2C9B               	nop2	;2 cycle nop
  3736                           	opt asmopt_on
  3737                           	opt asmopt_off
  3738  049B  2C9C               	nop2	;2 cycle nop
  3739                           	opt asmopt_on
  3740                           
  3741                           	line	276
  3742                           	
  3743  049C                     l1538:	
  3744                           ;uart_io.c: 276: dummy_byte=1;
  3745  049C  01FD               	clrf	(_dummy_byte)
  3746  049D  1403               	bsf	status,0
  3747  049E  0DFD               	rlf	(_dummy_byte),f
  3748                           	line	277
  3749                           	
  3750  049F                     l1540:	
  3751                           ;uart_io.c: 277: _delay((20000000/4)/9600-3);
  3752                           	opt asmopt_off
  3753  049F  30AC               movlw	172
  3754  04A0  00F1               movwf	(??_uart_write+0)+0,f
  3755  04A1                     u1827:
  3756  04A1  0BF1               decfsz	(??_uart_write+0)+0,f
  3757  04A2  2CA1               	goto	u1827
  3758                           opt asmopt_on
  3759                           
  3760                           	line	278
  3761                           ;uart_io.c: 278: break;
  3762  04A3  2DE6               	goto	l184
  3763                           	line	280
  3764                           ;uart_io.c: 280: case 4:
  3765                           	
  3766  04A4                     l159:	
  3767                           	line	281
  3768                           ;uart_io.c: 281: dummy_byte=0;
  3769  04A4  01FD               	clrf	(_dummy_byte)
  3770                           	line	282
  3771                           	
  3772  04A5                     l1542:	
  3773                           ;uart_io.c: 282: _delay((20000000/4)/9600-15);
  3774                           	opt asmopt_off
  3775  04A5  30A8               movlw	168
  3776  04A6  00F1               movwf	(??_uart_write+0)+0,f
  3777  04A7                     u1837:
  3778  04A7  0BF1               decfsz	(??_uart_write+0)+0,f
  3779  04A8  2CA7               	goto	u1837
  3780                           opt asmopt_on
  3781                           
  3782                           	line	283
  3783                           	
  3784  04A9                     l1544:	
  3785                           ;uart_io.c: 283: for(i=1;i>0;i=i<<1)
  3786  04A9  01F4               	clrf	(uart_write@i)
  3787  04AA  1403               	bsf	status,0
  3788  04AB  0DF4               	rlf	(uart_write@i),f
  3789                           	
  3790  04AC                     l1546:	
  3791  04AC  08F4               	movf	(uart_write@i),f
  3792  04AD  1D03               	skipz
  3793  04AE  2CB0               	goto	u1141
  3794  04AF  2CB1               	goto	u1140
  3795  04B0                     u1141:
  3796  04B0  2CB3               	goto	l1550
  3797  04B1                     u1140:
  3798  04B1  2CD3               	goto	l1562
  3799                           	
  3800  04B2                     l1548:	
  3801  04B2  2CD3               	goto	l1562
  3802                           	line	284
  3803                           	
  3804  04B3                     l160:	
  3805                           	line	285
  3806                           	
  3807  04B3                     l1550:	
  3808                           ;uart_io.c: 284: {
  3809                           ;uart_io.c: 285: if((data&i)==0)
  3810  04B3  0870               	movf	(uart_write@data),w
  3811  04B4  0574               	andwf	(uart_write@i),w
  3812  04B5  1D03               	btfss	status,2
  3813  04B6  2CB8               	goto	u1151
  3814  04B7  2CB9               	goto	u1150
  3815  04B8                     u1151:
  3816  04B8  2CBF               	goto	l1556
  3817  04B9                     u1150:
  3818                           	line	287
  3819                           	
  3820  04B9                     l1552:	
  3821                           ;uart_io.c: 286: {
  3822                           ;uart_io.c: 287: dummy_byte=0;
  3823  04B9  01FD               	clrf	(_dummy_byte)
  3824                           	line	288
  3825                           	
  3826  04BA                     l1554:	
  3827                           ;uart_io.c: 288: _delay((20000000/4)/9600-21);
  3828                           	opt asmopt_off
  3829  04BA  30A6               movlw	166
  3830  04BB  00F1               movwf	(??_uart_write+0)+0,f
  3831  04BC                     u1847:
  3832  04BC  0BF1               decfsz	(??_uart_write+0)+0,f
  3833  04BD  2CBC               	goto	u1847
  3834                           opt asmopt_on
  3835                           
  3836                           	line	289
  3837                           ;uart_io.c: 289: }
  3838  04BE  2CC7               	goto	l163
  3839                           	line	290
  3840                           	
  3841  04BF                     l162:	
  3842                           	line	292
  3843                           	
  3844  04BF                     l1556:	
  3845                           ;uart_io.c: 290: else
  3846                           ;uart_io.c: 291: {
  3847                           ;uart_io.c: 292: dummy_byte=1;
  3848  04BF  01FD               	clrf	(_dummy_byte)
  3849  04C0  1403               	bsf	status,0
  3850  04C1  0DFD               	rlf	(_dummy_byte),f
  3851                           	line	293
  3852                           	
  3853  04C2                     l1558:	
  3854                           ;uart_io.c: 293: _delay((20000000/4)/9600-20);
  3855                           	opt asmopt_off
  3856  04C2  30A6               movlw	166
  3857  04C3  00F1               movwf	(??_uart_write+0)+0,f
  3858  04C4                     u1857:
  3859  04C4  0BF1               decfsz	(??_uart_write+0)+0,f
  3860  04C5  2CC4               	goto	u1857
  3861  04C6  0000               	nop
  3862                           opt asmopt_on
  3863                           
  3864                           	line	294
  3865                           	
  3866  04C7                     l163:	
  3867                           	line	283
  3868  04C7  0874               	movf	(uart_write@i),w
  3869  04C8  00F1               	movwf	(??_uart_write+0)+0
  3870  04C9  0771               	addwf	(??_uart_write+0)+0,w
  3871  04CA  00F2               	movwf	(??_uart_write+1)+0
  3872  04CB  0872               	movf	(??_uart_write+1)+0,w
  3873  04CC  00F4               	movwf	(uart_write@i)
  3874                           	
  3875  04CD                     l1560:	
  3876  04CD  08F4               	movf	(uart_write@i),f
  3877  04CE  1D03               	skipz
  3878  04CF  2CD1               	goto	u1161
  3879  04D0  2CD2               	goto	u1160
  3880  04D1                     u1161:
  3881  04D1  2CB3               	goto	l1550
  3882  04D2                     u1160:
  3883  04D2  2CD3               	goto	l1562
  3884                           	
  3885  04D3                     l161:	
  3886                           	line	296
  3887                           	
  3888  04D3                     l1562:	
  3889                           ;uart_io.c: 294: }
  3890                           ;uart_io.c: 295: }
  3891                           ;uart_io.c: 296: _delay(8);
  3892                           		opt asmopt_off
  3893  04D3  2CD4               	nop2	;2 cycle nop
  3894                           	opt asmopt_on
  3895                           	opt asmopt_off
  3896  04D4  2CD5               	nop2	;2 cycle nop
  3897                           	opt asmopt_on
  3898                           	opt asmopt_off
  3899  04D5  2CD6               	nop2	;2 cycle nop
  3900                           	opt asmopt_on
  3901                           	opt asmopt_off
  3902  04D6  2CD7               	nop2	;2 cycle nop
  3903                           	opt asmopt_on
  3904                           
  3905                           	line	297
  3906                           	
  3907  04D7                     l1564:	
  3908                           ;uart_io.c: 297: dummy_byte=1;
  3909  04D7  01FD               	clrf	(_dummy_byte)
  3910  04D8  1403               	bsf	status,0
  3911  04D9  0DFD               	rlf	(_dummy_byte),f
  3912                           	line	298
  3913                           	
  3914  04DA                     l1566:	
  3915                           ;uart_io.c: 298: _delay((20000000/4)/9600-3);
  3916                           	opt asmopt_off
  3917  04DA  30AC               movlw	172
  3918  04DB  00F1               movwf	(??_uart_write+0)+0,f
  3919  04DC                     u1867:
  3920  04DC  0BF1               decfsz	(??_uart_write+0)+0,f
  3921  04DD  2CDC               	goto	u1867
  3922                           opt asmopt_on
  3923                           
  3924                           	line	299
  3925                           ;uart_io.c: 299: break;
  3926  04DE  2DE6               	goto	l184
  3927                           	line	301
  3928                           ;uart_io.c: 301: case 5:
  3929                           	
  3930  04DF                     l164:	
  3931                           	line	302
  3932                           ;uart_io.c: 302: dummy_byte=0;
  3933  04DF  01FD               	clrf	(_dummy_byte)
  3934                           	line	303
  3935                           	
  3936  04E0                     l1568:	
  3937                           ;uart_io.c: 303: _delay((20000000/4)/9600-15);
  3938                           	opt asmopt_off
  3939  04E0  30A8               movlw	168
  3940  04E1  00F1               movwf	(??_uart_write+0)+0,f
  3941  04E2                     u1877:
  3942  04E2  0BF1               decfsz	(??_uart_write+0)+0,f
  3943  04E3  2CE2               	goto	u1877
  3944                           opt asmopt_on
  3945                           
  3946                           	line	304
  3947                           	
  3948  04E4                     l1570:	
  3949                           ;uart_io.c: 304: for(i=1;i>0;i=i<<1)
  3950  04E4  01F4               	clrf	(uart_write@i)
  3951  04E5  1403               	bsf	status,0
  3952  04E6  0DF4               	rlf	(uart_write@i),f
  3953                           	
  3954  04E7                     l1572:	
  3955  04E7  08F4               	movf	(uart_write@i),f
  3956  04E8  1D03               	skipz
  3957  04E9  2CEB               	goto	u1171
  3958  04EA  2CEC               	goto	u1170
  3959  04EB                     u1171:
  3960  04EB  2CEE               	goto	l1576
  3961  04EC                     u1170:
  3962  04EC  2D0E               	goto	l1588
  3963                           	
  3964  04ED                     l1574:	
  3965  04ED  2D0E               	goto	l1588
  3966                           	line	305
  3967                           	
  3968  04EE                     l165:	
  3969                           	line	306
  3970                           	
  3971  04EE                     l1576:	
  3972                           ;uart_io.c: 305: {
  3973                           ;uart_io.c: 306: if((data&i)==0)
  3974  04EE  0870               	movf	(uart_write@data),w
  3975  04EF  0574               	andwf	(uart_write@i),w
  3976  04F0  1D03               	btfss	status,2
  3977  04F1  2CF3               	goto	u1181
  3978  04F2  2CF4               	goto	u1180
  3979  04F3                     u1181:
  3980  04F3  2CFA               	goto	l1582
  3981  04F4                     u1180:
  3982                           	line	308
  3983                           	
  3984  04F4                     l1578:	
  3985                           ;uart_io.c: 307: {
  3986                           ;uart_io.c: 308: dummy_byte=0;
  3987  04F4  01FD               	clrf	(_dummy_byte)
  3988                           	line	309
  3989                           	
  3990  04F5                     l1580:	
  3991                           ;uart_io.c: 309: _delay((20000000/4)/9600-21);
  3992                           	opt asmopt_off
  3993  04F5  30A6               movlw	166
  3994  04F6  00F1               movwf	(??_uart_write+0)+0,f
  3995  04F7                     u1887:
  3996  04F7  0BF1               decfsz	(??_uart_write+0)+0,f
  3997  04F8  2CF7               	goto	u1887
  3998                           opt asmopt_on
  3999                           
  4000                           	line	310
  4001                           ;uart_io.c: 310: }
  4002  04F9  2D02               	goto	l168
  4003                           	line	311
  4004                           	
  4005  04FA                     l167:	
  4006                           	line	313
  4007                           	
  4008  04FA                     l1582:	
  4009                           ;uart_io.c: 311: else
  4010                           ;uart_io.c: 312: {
  4011                           ;uart_io.c: 313: dummy_byte=1;
  4012  04FA  01FD               	clrf	(_dummy_byte)
  4013  04FB  1403               	bsf	status,0
  4014  04FC  0DFD               	rlf	(_dummy_byte),f
  4015                           	line	314
  4016                           	
  4017  04FD                     l1584:	
  4018                           ;uart_io.c: 314: _delay((20000000/4)/9600-20);
  4019                           	opt asmopt_off
  4020  04FD  30A6               movlw	166
  4021  04FE  00F1               movwf	(??_uart_write+0)+0,f
  4022  04FF                     u1897:
  4023  04FF  0BF1               decfsz	(??_uart_write+0)+0,f
  4024  0500  2CFF               	goto	u1897
  4025  0501  0000               	nop
  4026                           opt asmopt_on
  4027                           
  4028                           	line	315
  4029                           	
  4030  0502                     l168:	
  4031                           	line	304
  4032  0502  0874               	movf	(uart_write@i),w
  4033  0503  00F1               	movwf	(??_uart_write+0)+0
  4034  0504  0771               	addwf	(??_uart_write+0)+0,w
  4035  0505  00F2               	movwf	(??_uart_write+1)+0
  4036  0506  0872               	movf	(??_uart_write+1)+0,w
  4037  0507  00F4               	movwf	(uart_write@i)
  4038                           	
  4039  0508                     l1586:	
  4040  0508  08F4               	movf	(uart_write@i),f
  4041  0509  1D03               	skipz
  4042  050A  2D0C               	goto	u1191
  4043  050B  2D0D               	goto	u1190
  4044  050C                     u1191:
  4045  050C  2CEE               	goto	l1576
  4046  050D                     u1190:
  4047  050D  2D0E               	goto	l1588
  4048                           	
  4049  050E                     l166:	
  4050                           	line	317
  4051                           	
  4052  050E                     l1588:	
  4053                           ;uart_io.c: 315: }
  4054                           ;uart_io.c: 316: }
  4055                           ;uart_io.c: 317: _delay(8);
  4056                           		opt asmopt_off
  4057  050E  2D0F               	nop2	;2 cycle nop
  4058                           	opt asmopt_on
  4059                           	opt asmopt_off
  4060  050F  2D10               	nop2	;2 cycle nop
  4061                           	opt asmopt_on
  4062                           	opt asmopt_off
  4063  0510  2D11               	nop2	;2 cycle nop
  4064                           	opt asmopt_on
  4065                           	opt asmopt_off
  4066  0511  2D12               	nop2	;2 cycle nop
  4067                           	opt asmopt_on
  4068                           
  4069                           	line	318
  4070                           	
  4071  0512                     l1590:	
  4072                           ;uart_io.c: 318: dummy_byte=1;
  4073  0512  01FD               	clrf	(_dummy_byte)
  4074  0513  1403               	bsf	status,0
  4075  0514  0DFD               	rlf	(_dummy_byte),f
  4076                           	line	319
  4077                           	
  4078  0515                     l1592:	
  4079                           ;uart_io.c: 319: _delay((20000000/4)/9600-3);
  4080                           	opt asmopt_off
  4081  0515  30AC               movlw	172
  4082  0516  00F1               movwf	(??_uart_write+0)+0,f
  4083  0517                     u1907:
  4084  0517  0BF1               decfsz	(??_uart_write+0)+0,f
  4085  0518  2D17               	goto	u1907
  4086                           opt asmopt_on
  4087                           
  4088                           	line	320
  4089                           ;uart_io.c: 320: break;
  4090  0519  2DE6               	goto	l184
  4091                           	line	322
  4092                           ;uart_io.c: 322: case 6:
  4093                           	
  4094  051A                     l169:	
  4095                           	line	323
  4096                           ;uart_io.c: 323: dummy_byte=0;
  4097  051A  01FD               	clrf	(_dummy_byte)
  4098                           	line	324
  4099                           	
  4100  051B                     l1594:	
  4101                           ;uart_io.c: 324: _delay((20000000/4)/9600-15);
  4102                           	opt asmopt_off
  4103  051B  30A8               movlw	168
  4104  051C  00F1               movwf	(??_uart_write+0)+0,f
  4105  051D                     u1917:
  4106  051D  0BF1               decfsz	(??_uart_write+0)+0,f
  4107  051E  2D1D               	goto	u1917
  4108                           opt asmopt_on
  4109                           
  4110                           	line	325
  4111                           	
  4112  051F                     l1596:	
  4113                           ;uart_io.c: 325: for(i=1;i>0;i=i<<1)
  4114  051F  01F4               	clrf	(uart_write@i)
  4115  0520  1403               	bsf	status,0
  4116  0521  0DF4               	rlf	(uart_write@i),f
  4117                           	
  4118  0522                     l1598:	
  4119  0522  08F4               	movf	(uart_write@i),f
  4120  0523  1D03               	skipz
  4121  0524  2D26               	goto	u1201
  4122  0525  2D27               	goto	u1200
  4123  0526                     u1201:
  4124  0526  2D29               	goto	l1602
  4125  0527                     u1200:
  4126  0527  2D49               	goto	l1614
  4127                           	
  4128  0528                     l1600:	
  4129  0528  2D49               	goto	l1614
  4130                           	line	326
  4131                           	
  4132  0529                     l170:	
  4133                           	line	327
  4134                           	
  4135  0529                     l1602:	
  4136                           ;uart_io.c: 326: {
  4137                           ;uart_io.c: 327: if((data&i)==0)
  4138  0529  0870               	movf	(uart_write@data),w
  4139  052A  0574               	andwf	(uart_write@i),w
  4140  052B  1D03               	btfss	status,2
  4141  052C  2D2E               	goto	u1211
  4142  052D  2D2F               	goto	u1210
  4143  052E                     u1211:
  4144  052E  2D35               	goto	l1608
  4145  052F                     u1210:
  4146                           	line	329
  4147                           	
  4148  052F                     l1604:	
  4149                           ;uart_io.c: 328: {
  4150                           ;uart_io.c: 329: dummy_byte=0;
  4151  052F  01FD               	clrf	(_dummy_byte)
  4152                           	line	330
  4153                           	
  4154  0530                     l1606:	
  4155                           ;uart_io.c: 330: _delay((20000000/4)/9600-21);
  4156                           	opt asmopt_off
  4157  0530  30A6               movlw	166
  4158  0531  00F1               movwf	(??_uart_write+0)+0,f
  4159  0532                     u1927:
  4160  0532  0BF1               decfsz	(??_uart_write+0)+0,f
  4161  0533  2D32               	goto	u1927
  4162                           opt asmopt_on
  4163                           
  4164                           	line	331
  4165                           ;uart_io.c: 331: }
  4166  0534  2D3D               	goto	l173
  4167                           	line	332
  4168                           	
  4169  0535                     l172:	
  4170                           	line	334
  4171                           	
  4172  0535                     l1608:	
  4173                           ;uart_io.c: 332: else
  4174                           ;uart_io.c: 333: {
  4175                           ;uart_io.c: 334: dummy_byte=1;
  4176  0535  01FD               	clrf	(_dummy_byte)
  4177  0536  1403               	bsf	status,0
  4178  0537  0DFD               	rlf	(_dummy_byte),f
  4179                           	line	335
  4180                           	
  4181  0538                     l1610:	
  4182                           ;uart_io.c: 335: _delay((20000000/4)/9600-20);
  4183                           	opt asmopt_off
  4184  0538  30A6               movlw	166
  4185  0539  00F1               movwf	(??_uart_write+0)+0,f
  4186  053A                     u1937:
  4187  053A  0BF1               decfsz	(??_uart_write+0)+0,f
  4188  053B  2D3A               	goto	u1937
  4189  053C  0000               	nop
  4190                           opt asmopt_on
  4191                           
  4192                           	line	336
  4193                           	
  4194  053D                     l173:	
  4195                           	line	325
  4196  053D  0874               	movf	(uart_write@i),w
  4197  053E  00F1               	movwf	(??_uart_write+0)+0
  4198  053F  0771               	addwf	(??_uart_write+0)+0,w
  4199  0540  00F2               	movwf	(??_uart_write+1)+0
  4200  0541  0872               	movf	(??_uart_write+1)+0,w
  4201  0542  00F4               	movwf	(uart_write@i)
  4202                           	
  4203  0543                     l1612:	
  4204  0543  08F4               	movf	(uart_write@i),f
  4205  0544  1D03               	skipz
  4206  0545  2D47               	goto	u1221
  4207  0546  2D48               	goto	u1220
  4208  0547                     u1221:
  4209  0547  2D29               	goto	l1602
  4210  0548                     u1220:
  4211  0548  2D49               	goto	l1614
  4212                           	
  4213  0549                     l171:	
  4214                           	line	338
  4215                           	
  4216  0549                     l1614:	
  4217                           ;uart_io.c: 336: }
  4218                           ;uart_io.c: 337: }
  4219                           ;uart_io.c: 338: _delay(8);
  4220                           		opt asmopt_off
  4221  0549  2D4A               	nop2	;2 cycle nop
  4222                           	opt asmopt_on
  4223                           	opt asmopt_off
  4224  054A  2D4B               	nop2	;2 cycle nop
  4225                           	opt asmopt_on
  4226                           	opt asmopt_off
  4227  054B  2D4C               	nop2	;2 cycle nop
  4228                           	opt asmopt_on
  4229                           	opt asmopt_off
  4230  054C  2D4D               	nop2	;2 cycle nop
  4231                           	opt asmopt_on
  4232                           
  4233                           	line	339
  4234                           	
  4235  054D                     l1616:	
  4236                           ;uart_io.c: 339: dummy_byte=1;
  4237  054D  01FD               	clrf	(_dummy_byte)
  4238  054E  1403               	bsf	status,0
  4239  054F  0DFD               	rlf	(_dummy_byte),f
  4240                           	line	340
  4241                           	
  4242  0550                     l1618:	
  4243                           ;uart_io.c: 340: _delay((20000000/4)/9600-3);
  4244                           	opt asmopt_off
  4245  0550  30AC               movlw	172
  4246  0551  00F1               movwf	(??_uart_write+0)+0,f
  4247  0552                     u1947:
  4248  0552  0BF1               decfsz	(??_uart_write+0)+0,f
  4249  0553  2D52               	goto	u1947
  4250                           opt asmopt_on
  4251                           
  4252                           	line	341
  4253                           ;uart_io.c: 341: break;
  4254  0554  2DE6               	goto	l184
  4255                           	line	343
  4256                           ;uart_io.c: 343: case 7:
  4257                           	
  4258  0555                     l174:	
  4259                           	line	344
  4260                           ;uart_io.c: 344: dummy_byte=0;
  4261  0555  01FD               	clrf	(_dummy_byte)
  4262                           	line	345
  4263                           	
  4264  0556                     l1620:	
  4265                           ;uart_io.c: 345: _delay((20000000/4)/9600-15);
  4266                           	opt asmopt_off
  4267  0556  30A8               movlw	168
  4268  0557  00F1               movwf	(??_uart_write+0)+0,f
  4269  0558                     u1957:
  4270  0558  0BF1               decfsz	(??_uart_write+0)+0,f
  4271  0559  2D58               	goto	u1957
  4272                           opt asmopt_on
  4273                           
  4274                           	line	346
  4275                           	
  4276  055A                     l1622:	
  4277                           ;uart_io.c: 346: for(i=1;i>0;i=i<<1)
  4278  055A  01F4               	clrf	(uart_write@i)
  4279  055B  1403               	bsf	status,0
  4280  055C  0DF4               	rlf	(uart_write@i),f
  4281                           	
  4282  055D                     l1624:	
  4283  055D  08F4               	movf	(uart_write@i),f
  4284  055E  1D03               	skipz
  4285  055F  2D61               	goto	u1231
  4286  0560  2D62               	goto	u1230
  4287  0561                     u1231:
  4288  0561  2D64               	goto	l1628
  4289  0562                     u1230:
  4290  0562  2D84               	goto	l1640
  4291                           	
  4292  0563                     l1626:	
  4293  0563  2D84               	goto	l1640
  4294                           	line	347
  4295                           	
  4296  0564                     l175:	
  4297                           	line	348
  4298                           	
  4299  0564                     l1628:	
  4300                           ;uart_io.c: 347: {
  4301                           ;uart_io.c: 348: if((data&i)==0)
  4302  0564  0870               	movf	(uart_write@data),w
  4303  0565  0574               	andwf	(uart_write@i),w
  4304  0566  1D03               	btfss	status,2
  4305  0567  2D69               	goto	u1241
  4306  0568  2D6A               	goto	u1240
  4307  0569                     u1241:
  4308  0569  2D70               	goto	l1634
  4309  056A                     u1240:
  4310                           	line	350
  4311                           	
  4312  056A                     l1630:	
  4313                           ;uart_io.c: 349: {
  4314                           ;uart_io.c: 350: dummy_byte=0;
  4315  056A  01FD               	clrf	(_dummy_byte)
  4316                           	line	351
  4317                           	
  4318  056B                     l1632:	
  4319                           ;uart_io.c: 351: _delay((20000000/4)/9600-21);
  4320                           	opt asmopt_off
  4321  056B  30A6               movlw	166
  4322  056C  00F1               movwf	(??_uart_write+0)+0,f
  4323  056D                     u1967:
  4324  056D  0BF1               decfsz	(??_uart_write+0)+0,f
  4325  056E  2D6D               	goto	u1967
  4326                           opt asmopt_on
  4327                           
  4328                           	line	352
  4329                           ;uart_io.c: 352: }
  4330  056F  2D78               	goto	l178
  4331                           	line	353
  4332                           	
  4333  0570                     l177:	
  4334                           	line	355
  4335                           	
  4336  0570                     l1634:	
  4337                           ;uart_io.c: 353: else
  4338                           ;uart_io.c: 354: {
  4339                           ;uart_io.c: 355: dummy_byte=1;
  4340  0570  01FD               	clrf	(_dummy_byte)
  4341  0571  1403               	bsf	status,0
  4342  0572  0DFD               	rlf	(_dummy_byte),f
  4343                           	line	356
  4344                           	
  4345  0573                     l1636:	
  4346                           ;uart_io.c: 356: _delay((20000000/4)/9600-20);
  4347                           	opt asmopt_off
  4348  0573  30A6               movlw	166
  4349  0574  00F1               movwf	(??_uart_write+0)+0,f
  4350  0575                     u1977:
  4351  0575  0BF1               decfsz	(??_uart_write+0)+0,f
  4352  0576  2D75               	goto	u1977
  4353  0577  0000               	nop
  4354                           opt asmopt_on
  4355                           
  4356                           	line	357
  4357                           	
  4358  0578                     l178:	
  4359                           	line	346
  4360  0578  0874               	movf	(uart_write@i),w
  4361  0579  00F1               	movwf	(??_uart_write+0)+0
  4362  057A  0771               	addwf	(??_uart_write+0)+0,w
  4363  057B  00F2               	movwf	(??_uart_write+1)+0
  4364  057C  0872               	movf	(??_uart_write+1)+0,w
  4365  057D  00F4               	movwf	(uart_write@i)
  4366                           	
  4367  057E                     l1638:	
  4368  057E  08F4               	movf	(uart_write@i),f
  4369  057F  1D03               	skipz
  4370  0580  2D82               	goto	u1251
  4371  0581  2D83               	goto	u1250
  4372  0582                     u1251:
  4373  0582  2D64               	goto	l1628
  4374  0583                     u1250:
  4375  0583  2D84               	goto	l1640
  4376                           	
  4377  0584                     l176:	
  4378                           	line	359
  4379                           	
  4380  0584                     l1640:	
  4381                           ;uart_io.c: 357: }
  4382                           ;uart_io.c: 358: }
  4383                           ;uart_io.c: 359: _delay(8);
  4384                           		opt asmopt_off
  4385  0584  2D85               	nop2	;2 cycle nop
  4386                           	opt asmopt_on
  4387                           	opt asmopt_off
  4388  0585  2D86               	nop2	;2 cycle nop
  4389                           	opt asmopt_on
  4390                           	opt asmopt_off
  4391  0586  2D87               	nop2	;2 cycle nop
  4392                           	opt asmopt_on
  4393                           	opt asmopt_off
  4394  0587  2D88               	nop2	;2 cycle nop
  4395                           	opt asmopt_on
  4396                           
  4397                           	line	360
  4398                           	
  4399  0588                     l1642:	
  4400                           ;uart_io.c: 360: dummy_byte=1;
  4401  0588  01FD               	clrf	(_dummy_byte)
  4402  0589  1403               	bsf	status,0
  4403  058A  0DFD               	rlf	(_dummy_byte),f
  4404                           	line	361
  4405                           	
  4406  058B                     l1644:	
  4407                           ;uart_io.c: 361: _delay((20000000/4)/9600-3);
  4408                           	opt asmopt_off
  4409  058B  30AC               movlw	172
  4410  058C  00F1               movwf	(??_uart_write+0)+0,f
  4411  058D                     u1987:
  4412  058D  0BF1               decfsz	(??_uart_write+0)+0,f
  4413  058E  2D8D               	goto	u1987
  4414                           opt asmopt_on
  4415                           
  4416                           	line	362
  4417                           ;uart_io.c: 362: break;
  4418  058F  2DE6               	goto	l184
  4419                           	line	364
  4420                           ;uart_io.c: 364: case 8:
  4421                           	
  4422  0590                     l179:	
  4423                           	line	365
  4424                           ;uart_io.c: 365: dummy_byte=0;
  4425  0590  01FD               	clrf	(_dummy_byte)
  4426                           	line	366
  4427                           	
  4428  0591                     l1646:	
  4429                           ;uart_io.c: 366: _delay((20000000/4)/9600-15);
  4430                           	opt asmopt_off
  4431  0591  30A8               movlw	168
  4432  0592  00F1               movwf	(??_uart_write+0)+0,f
  4433  0593                     u1997:
  4434  0593  0BF1               decfsz	(??_uart_write+0)+0,f
  4435  0594  2D93               	goto	u1997
  4436                           opt asmopt_on
  4437                           
  4438                           	line	367
  4439                           	
  4440  0595                     l1648:	
  4441                           ;uart_io.c: 367: for(i=1;i>0;i=i<<1)
  4442  0595  01F4               	clrf	(uart_write@i)
  4443  0596  1403               	bsf	status,0
  4444  0597  0DF4               	rlf	(uart_write@i),f
  4445                           	
  4446  0598                     l1650:	
  4447  0598  08F4               	movf	(uart_write@i),f
  4448  0599  1D03               	skipz
  4449  059A  2D9C               	goto	u1261
  4450  059B  2D9D               	goto	u1260
  4451  059C                     u1261:
  4452  059C  2D9F               	goto	l1654
  4453  059D                     u1260:
  4454  059D  2DBF               	goto	l1666
  4455                           	
  4456  059E                     l1652:	
  4457  059E  2DBF               	goto	l1666
  4458                           	line	368
  4459                           	
  4460  059F                     l180:	
  4461                           	line	369
  4462                           	
  4463  059F                     l1654:	
  4464                           ;uart_io.c: 368: {
  4465                           ;uart_io.c: 369: if((data&i)==0)
  4466  059F  0870               	movf	(uart_write@data),w
  4467  05A0  0574               	andwf	(uart_write@i),w
  4468  05A1  1D03               	btfss	status,2
  4469  05A2  2DA4               	goto	u1271
  4470  05A3  2DA5               	goto	u1270
  4471  05A4                     u1271:
  4472  05A4  2DAB               	goto	l1660
  4473  05A5                     u1270:
  4474                           	line	371
  4475                           	
  4476  05A5                     l1656:	
  4477                           ;uart_io.c: 370: {
  4478                           ;uart_io.c: 371: dummy_byte=0;
  4479  05A5  01FD               	clrf	(_dummy_byte)
  4480                           	line	372
  4481                           	
  4482  05A6                     l1658:	
  4483                           ;uart_io.c: 372: _delay((20000000/4)/9600-21);
  4484                           	opt asmopt_off
  4485  05A6  30A6               movlw	166
  4486  05A7  00F1               movwf	(??_uart_write+0)+0,f
  4487  05A8                     u2007:
  4488  05A8  0BF1               decfsz	(??_uart_write+0)+0,f
  4489  05A9  2DA8               	goto	u2007
  4490                           opt asmopt_on
  4491                           
  4492                           	line	373
  4493                           ;uart_io.c: 373: }
  4494  05AA  2DB3               	goto	l183
  4495                           	line	374
  4496                           	
  4497  05AB                     l182:	
  4498                           	line	376
  4499                           	
  4500  05AB                     l1660:	
  4501                           ;uart_io.c: 374: else
  4502                           ;uart_io.c: 375: {
  4503                           ;uart_io.c: 376: dummy_byte=1;
  4504  05AB  01FD               	clrf	(_dummy_byte)
  4505  05AC  1403               	bsf	status,0
  4506  05AD  0DFD               	rlf	(_dummy_byte),f
  4507                           	line	377
  4508                           	
  4509  05AE                     l1662:	
  4510                           ;uart_io.c: 377: _delay((20000000/4)/9600-20);
  4511                           	opt asmopt_off
  4512  05AE  30A6               movlw	166
  4513  05AF  00F1               movwf	(??_uart_write+0)+0,f
  4514  05B0                     u2017:
  4515  05B0  0BF1               decfsz	(??_uart_write+0)+0,f
  4516  05B1  2DB0               	goto	u2017
  4517  05B2  0000               	nop
  4518                           opt asmopt_on
  4519                           
  4520                           	line	378
  4521                           	
  4522  05B3                     l183:	
  4523                           	line	367
  4524  05B3  0874               	movf	(uart_write@i),w
  4525  05B4  00F1               	movwf	(??_uart_write+0)+0
  4526  05B5  0771               	addwf	(??_uart_write+0)+0,w
  4527  05B6  00F2               	movwf	(??_uart_write+1)+0
  4528  05B7  0872               	movf	(??_uart_write+1)+0,w
  4529  05B8  00F4               	movwf	(uart_write@i)
  4530                           	
  4531  05B9                     l1664:	
  4532  05B9  08F4               	movf	(uart_write@i),f
  4533  05BA  1D03               	skipz
  4534  05BB  2DBD               	goto	u1281
  4535  05BC  2DBE               	goto	u1280
  4536  05BD                     u1281:
  4537  05BD  2D9F               	goto	l1654
  4538  05BE                     u1280:
  4539  05BE  2DBF               	goto	l1666
  4540                           	
  4541  05BF                     l181:	
  4542                           	line	380
  4543                           	
  4544  05BF                     l1666:	
  4545                           ;uart_io.c: 378: }
  4546                           ;uart_io.c: 379: }
  4547                           ;uart_io.c: 380: _delay(8);
  4548                           		opt asmopt_off
  4549  05BF  2DC0               	nop2	;2 cycle nop
  4550                           	opt asmopt_on
  4551                           	opt asmopt_off
  4552  05C0  2DC1               	nop2	;2 cycle nop
  4553                           	opt asmopt_on
  4554                           	opt asmopt_off
  4555  05C1  2DC2               	nop2	;2 cycle nop
  4556                           	opt asmopt_on
  4557                           	opt asmopt_off
  4558  05C2  2DC3               	nop2	;2 cycle nop
  4559                           	opt asmopt_on
  4560                           
  4561                           	line	381
  4562                           	
  4563  05C3                     l1668:	
  4564                           ;uart_io.c: 381: dummy_byte=1;
  4565  05C3  01FD               	clrf	(_dummy_byte)
  4566  05C4  1403               	bsf	status,0
  4567  05C5  0DFD               	rlf	(_dummy_byte),f
  4568                           	line	382
  4569                           	
  4570  05C6                     l1670:	
  4571                           ;uart_io.c: 382: _delay((20000000/4)/9600-3);
  4572                           	opt asmopt_off
  4573  05C6  30AC               movlw	172
  4574  05C7  00F1               movwf	(??_uart_write+0)+0,f
  4575  05C8                     u2027:
  4576  05C8  0BF1               decfsz	(??_uart_write+0)+0,f
  4577  05C9  2DC8               	goto	u2027
  4578                           opt asmopt_on
  4579                           
  4580                           	line	383
  4581                           ;uart_io.c: 383: break;
  4582  05CA  2DE6               	goto	l184
  4583                           	line	385
  4584                           	
  4585  05CB                     l1672:	
  4586                           ;uart_io.c: 385: }
  4587  05CB  2DE6               	goto	l184
  4588                           	line	215
  4589                           	
  4590  05CC                     l142:	
  4591                           	
  4592  05CC                     l1674:	
  4593  05CC  0873               	movf	(uart_write@channel),w
  4594                           	; Switch size 1, requested type "space"
  4595                           ; Number of cases is 8, Range of values is 1 to 8
  4596                           ; switch strategies available:
  4597                           ; Name         Instructions Cycles
  4598                           ; simple_byte           25    13 (average)
  4599                           ; direct_byte           35    11 (fixed)
  4600                           ; jumptable            263     9 (fixed)
  4601                           ;	Chosen strategy is simple_byte
  4602                           
  4603                           	opt asmopt_off
  4604  05CD  3A01               	xorlw	1^0	; case 1
  4605  05CE  1903               	skipnz
  4606  05CF  2BE9               	goto	l143
  4607  05D0  3A03               	xorlw	2^1	; case 2
  4608  05D1  1903               	skipnz
  4609  05D2  2C29               	goto	l149
  4610  05D3  3A01               	xorlw	3^2	; case 3
  4611  05D4  1903               	skipnz
  4612  05D5  2C69               	goto	l154
  4613  05D6  3A07               	xorlw	4^3	; case 4
  4614  05D7  1903               	skipnz
  4615  05D8  2CA4               	goto	l159
  4616  05D9  3A01               	xorlw	5^4	; case 5
  4617  05DA  1903               	skipnz
  4618  05DB  2CDF               	goto	l164
  4619  05DC  3A03               	xorlw	6^5	; case 6
  4620  05DD  1903               	skipnz
  4621  05DE  2D1A               	goto	l169
  4622  05DF  3A01               	xorlw	7^6	; case 7
  4623  05E0  1903               	skipnz
  4624  05E1  2D55               	goto	l174
  4625  05E2  3A0F               	xorlw	8^7	; case 8
  4626  05E3  1903               	skipnz
  4627  05E4  2D90               	goto	l179
  4628  05E5  2DE6               	goto	l184
  4629                           	opt asmopt_on
  4630                           
  4631                           	line	385
  4632                           	
  4633  05E6                     l148:	
  4634                           	line	386
  4635                           	
  4636  05E6                     l184:	
  4637  05E6  0008               	return
  4638                           	opt stack 0
  4639                           GLOBAL	__end_of_uart_write
  4640  05E7                     	__end_of_uart_write:
  4641                           	signat	_uart_write,8312
  4642                           	global	_send_char
  4643                           
  4644 ;; *************** function _send_char *****************
  4645 ;; Defined at:
  4646 ;;		line 177 in file "Slave_Programmed UART_1.c"
  4647 ;; Parameters:    Size  Location     Type
  4648 ;;  data            1    wreg     unsigned char 
  4649 ;; Auto vars:     Size  Location     Type
  4650 ;;  data            1    8[COMMON] unsigned char 
  4651 ;; Return value:  Size  Location     Type
  4652 ;;		None               void
  4653 ;; Registers used:
  4654 ;;		wreg, status,2, status,0, pclath, cstack
  4655 ;; Tracked objects:
  4656 ;;		On entry : 0/0
  4657 ;;		On exit  : 0/0
  4658 ;;		Unchanged: 0/0
  4659 ;; Data sizes:     COMMON   BANK0   BANK1   BANK3   BANK2
  4660 ;;      Params:         0       0       0       0       0
  4661 ;;      Locals:         1       0       0       0       0
  4662 ;;      Temps:          0       0       0       0       0
  4663 ;;      Totals:         1       0       0       0       0
  4664 ;;Total ram usage:        1 bytes
  4665 ;; Hardware stack levels used:    1
  4666 ;; Hardware stack levels required when called:    1
  4667 ;; This function calls:
  4668 ;;		_delay
  4669 ;; This function is called by:
  4670 ;;		_main
  4671 ;;		_send_string
  4672 ;; This function uses a non-reentrant model
  4673 ;;
  4674                           psect	text200,local,class=CODE,delta=2,merge=1
  4675                           global __ptext200
  4676  011C                     __ptext200:
  4677                           psect	text200
  4678                           	file	"Slave_Programmed UART_1.c"
  4679                           	line	177
  4680                           	global	__size_of_send_char
  4681  0025                     	__size_of_send_char	equ	__end_of_send_char-_send_char
  4682                           	
  4683  011C                     _send_char:	
  4684                           	opt	stack 6
  4685                           ; Regs used in _send_char: [wreg+status,2+status,0+pclath+cstack]
  4686                           ;send_char@data stored from wreg
  4687  011C  00F8               	movwf	(send_char@data)
  4688                           	line	178
  4689                           	
  4690  011D                     l1676:	
  4691                           ;Slave_Programmed UART_1.c: 178: RC4=1;
  4692  011D  1283               	bcf	status, 5	;RP0=0, select bank0
  4693  011E  1303               	bcf	status, 6	;RP1=0, select bank0
  4694  011F  1607               	bsf	(60/8),(60)&7	;volatile
  4695                           	line	179
  4696                           	
  4697  0120                     l1678:	
  4698                           ;Slave_Programmed UART_1.c: 179: PORTB=data;
  4699  0120  0878               	movf	(send_char@data),w
  4700  0121  0086               	movwf	(6)	;volatile
  4701                           	line	180
  4702                           	
  4703  0122                     l1680:	
  4704                           ;Slave_Programmed UART_1.c: 180: RC5=1;
  4705  0122  1687               	bsf	(61/8),(61)&7	;volatile
  4706                           	line	181
  4707                           	
  4708  0123                     l1682:	
  4709                           ;Slave_Programmed UART_1.c: 181: delay(50);
  4710  0123  3000               	movlw	0
  4711  0124  00F3               	movwf	(?_delay+3)
  4712  0125  3000               	movlw	0
  4713  0126  00F2               	movwf	(?_delay+2)
  4714  0127  3000               	movlw	0
  4715  0128  00F1               	movwf	(?_delay+1)
  4716  0129  3032               	movlw	032h
  4717  012A  00F0               	movwf	(?_delay)
  4718                           
  4719  012B  120A  118A  218C   	fcall	_delay
              120A  118A         
  4720                           	line	182
  4721                           	
  4722  0130                     l1684:	
  4723                           ;Slave_Programmed UART_1.c: 182: RC5=0;
  4724  0130  1283               	bcf	status, 5	;RP0=0, select bank0
  4725  0131  1303               	bcf	status, 6	;RP1=0, select bank0
  4726  0132  1287               	bcf	(61/8),(61)&7	;volatile
  4727                           	line	183
  4728                           	
  4729  0133                     l1686:	
  4730                           ;Slave_Programmed UART_1.c: 183: delay(50);
  4731  0133  3000               	movlw	0
  4732  0134  00F3               	movwf	(?_delay+3)
  4733  0135  3000               	movlw	0
  4734  0136  00F2               	movwf	(?_delay+2)
  4735  0137  3000               	movlw	0
  4736  0138  00F1               	movwf	(?_delay+1)
  4737  0139  3032               	movlw	032h
  4738  013A  00F0               	movwf	(?_delay)
  4739                           
  4740  013B  120A  118A  218C   	fcall	_delay
              120A  118A         
  4741                           	line	184
  4742                           	
  4743  0140                     l90:	
  4744  0140  0008               	return
  4745                           	opt stack 0
  4746                           GLOBAL	__end_of_send_char
  4747  0141                     	__end_of_send_char:
  4748                           	signat	_send_char,4216
  4749                           	global	_delay
  4750                           
  4751 ;; *************** function _delay *****************
  4752 ;; Defined at:
  4753 ;;		line 161 in file "Slave_Programmed UART_1.c"
  4754 ;; Parameters:    Size  Location     Type
  4755 ;;  data            4    0[COMMON] unsigned long 
  4756 ;; Auto vars:     Size  Location     Type
  4757 ;;		None
  4758 ;; Return value:  Size  Location     Type
  4759 ;;		None               void
  4760 ;; Registers used:
  4761 ;;		wreg
  4762 ;; Tracked objects:
  4763 ;;		On entry : 0/0
  4764 ;;		On exit  : 0/0
  4765 ;;		Unchanged: 0/0
  4766 ;; Data sizes:     COMMON   BANK0   BANK1   BANK3   BANK2
  4767 ;;      Params:         4       0       0       0       0
  4768 ;;      Locals:         0       0       0       0       0
  4769 ;;      Temps:          4       0       0       0       0
  4770 ;;      Totals:         8       0       0       0       0
  4771 ;;Total ram usage:        8 bytes
  4772 ;; Hardware stack levels used:    1
  4773 ;; This function calls:
  4774 ;;		Nothing
  4775 ;; This function is called by:
  4776 ;;		_send_config
  4777 ;;		_send_char
  4778 ;;		_lcd_clr
  4779 ;; This function uses a non-reentrant model
  4780 ;;
  4781                           psect	text201,local,class=CODE,delta=2,merge=1
  4782                           global __ptext201
  4783  018C                     __ptext201:
  4784                           psect	text201
  4785                           	file	"Slave_Programmed UART_1.c"
  4786                           	line	161
  4787                           	global	__size_of_delay
  4788  0030                     	__size_of_delay	equ	__end_of_delay-_delay
  4789                           	
  4790  018C                     _delay:	
  4791                           	opt	stack 6
  4792                           ; Regs used in _delay: [wreg]
  4793                           	line	162
  4794                           	
  4795  018C                     l1290:	
  4796                           ;Slave_Programmed UART_1.c: 162: for( ;data>0;data-=1);
  4797  018C  0873               	movf	(delay@data+3),w
  4798  018D  0472               	iorwf	(delay@data+2),w
  4799  018E  0471               	iorwf	(delay@data+1),w
  4800  018F  0470               	iorwf	(delay@data),w
  4801  0190  1D03               	skipz
  4802  0191  2993               	goto	u701
  4803  0192  2994               	goto	u700
  4804  0193                     u701:
  4805  0193  2996               	goto	l1294
  4806  0194                     u700:
  4807  0194  29BB               	goto	l84
  4808                           	
  4809  0195                     l1292:	
  4810  0195  29BB               	goto	l84
  4811                           	
  4812  0196                     l82:	
  4813                           	
  4814  0196                     l1294:	
  4815  0196  3001               	movlw	01h
  4816  0197  00F4               	movwf	((??_delay+0)+0)
  4817  0198  3000               	movlw	0
  4818  0199  00F5               	movwf	((??_delay+0)+0+1)
  4819  019A  3000               	movlw	0
  4820  019B  00F6               	movwf	((??_delay+0)+0+2)
  4821  019C  3000               	movlw	0
  4822  019D  00F7               	movwf	((??_delay+0)+0+3)
  4823  019E  0874               	movf	0+(??_delay+0)+0,w
  4824  019F  02F0               	subwf	(delay@data),f
  4825  01A0  0875               	movf	1+(??_delay+0)+0,w
  4826  01A1  1C03               	skipc
  4827  01A2  0F75               	incfsz	1+(??_delay+0)+0,w
  4828  01A3  29A5               	goto	u715
  4829  01A4  29A6               	goto	u716
  4830  01A5                     u715:
  4831  01A5  02F1               	subwf	(delay@data+1),f
  4832  01A6                     u716:
  4833  01A6  0876               	movf	2+(??_delay+0)+0,w
  4834  01A7  1C03               	skipc
  4835  01A8  0F76               	incfsz	2+(??_delay+0)+0,w
  4836  01A9  29AB               	goto	u717
  4837  01AA  29AC               	goto	u718
  4838  01AB                     u717:
  4839  01AB  02F2               	subwf	(delay@data+2),f
  4840  01AC                     u718:
  4841  01AC  0877               	movf	3+(??_delay+0)+0,w
  4842  01AD  1C03               	skipc
  4843  01AE  0F77               	incfsz	3+(??_delay+0)+0,w
  4844  01AF  29B1               	goto	u719
  4845  01B0  29B2               	goto	u710
  4846  01B1                     u719:
  4847  01B1  02F3               	subwf	(delay@data+3),f
  4848  01B2                     u710:
  4849                           
  4850  01B2  0873               	movf	(delay@data+3),w
  4851  01B3  0472               	iorwf	(delay@data+2),w
  4852  01B4  0471               	iorwf	(delay@data+1),w
  4853  01B5  0470               	iorwf	(delay@data),w
  4854  01B6  1D03               	skipz
  4855  01B7  29B9               	goto	u721
  4856  01B8  29BA               	goto	u720
  4857  01B9                     u721:
  4858  01B9  2996               	goto	l1294
  4859  01BA                     u720:
  4860  01BA  29BB               	goto	l84
  4861                           	
  4862  01BB                     l83:	
  4863                           	line	163
  4864                           	
  4865  01BB                     l84:	
  4866  01BB  0008               	return
  4867                           	opt stack 0
  4868                           GLOBAL	__end_of_delay
  4869  01BC                     	__end_of_delay:
  4870                           	signat	_delay,4216
  4871                           psect	text202,local,class=CODE,delta=2,merge=1
  4872                           global __ptext202
  4873  0000                     __ptext202:
  4874                           	global	btemp
  4875  007E                     	btemp set 07Eh
  4876                           
  4877                           	DABS	1,126,2	;btemp
  4878                           	global	wtemp0
  4879  007E                     	wtemp0 set btemp


Data Sizes:
    Strings     25
    Constant    0
    Data        0
    BSS         5
    Persistent  0
    Stack       0

Auto Spaces:
    Space          Size  Autos    Used
    COMMON           14     13      14
    BANK0            80      0       4
    BANK1            80      0       0
    BANK3            96      0       0
    BANK2            96      0       0

Pointer List with Targets:

    send_string@s	PTR const unsigned char  size(1) Largest target is 13
		 -> STR_2(CODE[13]), STR_1(CODE[12]), 


Critical Paths under _main in COMMON

    _main->_lcd_goto
    _main->_send_string
    _lcd_clr->_send_config
    _lcd_goto->_send_config
    _send_config->_delay
    _send_string->_send_char
    _send_char->_delay

Critical Paths under _main in BANK0

    None.

Critical Paths under _main in BANK1

    None.

Critical Paths under _main in BANK3

    None.

Critical Paths under _main in BANK2

    None.

Call Graph Tables:

 ---------------------------------------------------------------------------------
 (Depth) Function   	        Calls       Base Space   Used Autos Params    Refs
 ---------------------------------------------------------------------------------
 (0) _main                                                 2     2      0    2413
                                             11 COMMON     2     2      0
                        _send_config
                            _lcd_clr
                           _lcd_goto
                        _send_string
                          _uart_init
                          _uart_read
                         _uart_write
                          _send_char
 ---------------------------------------------------------------------------------
 (1) _lcd_clr                                              0     0      0     112
                        _send_config
                              _delay
 ---------------------------------------------------------------------------------
 (1) _lcd_goto                                             2     2      0     156
                                              9 COMMON     2     2      0
                        _send_config
 ---------------------------------------------------------------------------------
 (2) _send_config                                          1     1      0      67
                                              8 COMMON     1     1      0
                              _delay
 ---------------------------------------------------------------------------------
 (1) _send_string                                          2     2      0     134
                                              9 COMMON     2     2      0
                          _send_char
 ---------------------------------------------------------------------------------
 (1) _uart_init                                            1     1      0      22
                                              0 COMMON     1     1      0
 ---------------------------------------------------------------------------------
 (1) _uart_read                                            6     6      0     775
                                              0 COMMON     6     6      0
 ---------------------------------------------------------------------------------
 (1) _uart_write                                           5     4      1     918
                                              0 COMMON     5     4      1
 ---------------------------------------------------------------------------------
 (1) _send_char                                            1     1      0      67
                                              8 COMMON     1     1      0
                              _delay
 ---------------------------------------------------------------------------------
 (2) _delay                                                8     4      4      45
                                              0 COMMON     8     4      4
 ---------------------------------------------------------------------------------
 Estimated maximum stack depth 2
 ---------------------------------------------------------------------------------

 Call Graph Graphs:

 _main (ROOT)
   _send_config
     _delay
   _lcd_clr
     _send_config
       _delay
     _delay
   _lcd_goto
     _send_config
       _delay
   _send_string
     _send_char
       _delay
   _uart_init
   _uart_read
   _uart_write
   _send_char
     _delay

 Address spaces:
Name               Size   Autos  Total    Cost      Usage
BITCOMMON            E      0       0       0        0.0%
EEDATA             100      0       0       0        0.0%
NULL                 0      0       0       0        0.0%
CODE                 0      0       0       0        0.0%
COMMON               E      D       E       1      100.0%
BITSFR0              0      0       0       1        0.0%
SFR0                 0      0       0       1        0.0%
BITSFR1              0      0       0       2        0.0%
SFR1                 0      0       0       2        0.0%
STACK                0      0       3       2        0.0%
ABS                  0      0      12       3        0.0%
BITBANK0            50      0       0       4        0.0%
BITSFR3              0      0       0       4        0.0%
SFR3                 0      0       0       4        0.0%
BANK0               50      0       4       5        5.0%
BITSFR2              0      0       0       5        0.0%
SFR2                 0      0       0       5        0.0%
BITBANK1            50      0       0       6        0.0%
BANK1               50      0       0       7        0.0%
BITBANK3            60      0       0       8        0.0%
BANK3               60      0       0       9        0.0%
BITBANK2            60      0       0      10        0.0%
BANK2               60      0       0      11        0.0%
DATA                 0      0      15      12        0.0%


HI-TECH Software PICC Macro Assembler V1.00 build 12136 
Symbol Table                                                                                   Thu Jun 28 11:03:05 2012

                   _k 0020                     _m 0022                     pc 0002        uart_write@data 0070  
                  l50 03CE                    l51 0290                    l60 02E8                    l52 02A2  
                  l61 02F3                    l53 02A6                    l54 03E2                    l62 0349  
                  l70 032F                    l71 033F                    l63 02FD                    l55 02B1  
                  l72 0347                    l64 030D                    l56 02C3                    l73 0355  
                  l65 0315                    l57 02C7                    l49 0286                    l82 0196  
                  l90 0140                    l74 0374                    l66 0354                    l58 02D2  
                  l83 01BB                    l75 03AA                    l67 0316                    l59 02E4  
                  l84 01BB                    l76 03C2                    l68 0326                    l93 00FE  
                  l77 03E3                    l69 032E                    l78 03E4                    l87 0165  
                  l79 03E4                    l96 0179                    l97 0168                    l99 018A  
                  fsr 0004                   l100 018B                   l101 018B                   l200 0632  
                 l104 010E                   l201 0646                   l105 011B                   l210 06A1  
                 l202 0663                   l130 01BE                   l106 011B                   l211 068F  
                 l203 0651                   l131 0235                   l220 06CF                   l212 0690  
                 l204 0652                   l132 01CB                   l221 06E6                   l213 06A7  
                 l205 0669                   l133 01D8                   l142 05CC                   l150 043A  
                 l230 0727                   l222 06E8                   l214 06A9                   l206 066C  
                 l134 01E3                   l151 045D                   l143 03E9                   l231 0726  
                 l223 06E7                   l215 06A8                   l207 066B                   l135 01EE  
                 l160 04B3                   l152 0448                   l144 03FA                   l240 076C  
                 l232 072D                   l224 06EE                   l216 06AF                   l208 0672  
                 l136 01F9                   l161 04D3                   l153 0451                   l145 041D  
                 l241 0780                   l233 0741                   l225 0702                   l217 06C3  
                 l209 0686                   l129 021B                   l137 0204                   l170 0529  
                 l162 04BF                   l154 0469                   l146 0408                   l250 07DC  
                 l242 079D                   l234 075E                   l226 071F                   l218 06E0  
                 l138 020F                   l171 0549                   l163 04C7                   l155 0478  
                 l147 0411                   l251 07CA                   l243 078B                   l235 074C  
                 l227 070D                   l219 06CE                   l139 0235                   l148 05E6  
                 l180 059F                   l172 0535                   l164 04DF                   l156 0498  
                 l252 07CB                   l244 078C                   l236 074D                   l228 070E  
                 l181 05BF                   l173 053D                   l165 04EE                   l157 0484  
                 l149 0429                   l253 07FF                   l245 07A3                   l237 0764  
                 l229 0725                   l182 05AB                   l174 0555                   l166 050E  
                 l158 048C                   l246 07A5                   l238 0766                   l190 05EC  
                 l183 05B3                   l175 0564                   l167 04FA                   l159 04A4  
                 l247 07A4                   l239 0765                   l191 05F3                   l176 0584  
                 l168 0502                   l184 05E6                   l248 07AB                   l192 0607  
                 l177 0570                   l169 051A                   l249 07BF                   l193 0624  
                 l178 0578                   l194 0612                   l179 0590                   l187 07E3  
                 l195 0613                   l196 07FD                   l188 05EB                   l197 062A  
                 l189 05EC                   l198 062B                   l199 062B                   _RA0 0028  
                 _RA1 0029                   _RA2 002A                   _RA3 002B                   _RC0 0038  
                 _RA4 002C                   _RC1 0039                   _RA5 002D                   _RC2 003A  
                 _RC3 003B                   _RC4 003C                   _RC5 003D                   u700 0194  
                 u701 0193                   u710 01B2                   u720 01BA                   u800 0662  
                 u721 01B9                   u801 0661                   u810 0671                   u730 05F2  
                 u715 01A5                   u811 0670                   u731 05F1                   u716 01A6  
                 u900 0700                   u820 0684                   u740 0605                   u717 01AB  
                 u901 06FF                   u821 0683                   u741 0604                   u718 01AC  
                 u910 0708                   u830 068A                   u750 060D                   u719 01B1  
                 u911 0707                   u751 060C                   u920 071E                   u840 06A0  
                 u760 0623                   u921 071D                   u841 069F                   u761 0622  
                 u930 072C                   u850 06AE                   u770 0631                   u931 072B  
                 u851 06AD                   u771 0630                   u940 073F                   u860 06C1  
                 u780 0644                   u941 073E                   u861 06C0                   u781 0643  
                 u950 0747                   u870 06C9                   u790 064C                   u951 0746  
                 u871 06C8                   u791 064B                   u960 075D                   u880 06DF  
                 u961 075C                   u881 06DE                   u970 076B                   u890 06ED  
                 u971 076A                   u891 06EC                   u980 077E                   u981 077D  
                 u990 0786                   u991 0785                   fsr0 0004       send_config@data 0078  
                l1300 0147                  l1310 05F3                  l1302 0148                  l1400 071F  
                l1320 0613                  l1312 05FD                  l1304 0155                  l1410 0740  
                l1402 0727                  l1330 063F                  l1322 0618                  l1314 0600  
                l1306 0158                  l1500 0439                  l1420 075E                  l1412 0741  
                l1404 072D                  l1332 0645                  l1340 0663                  l1316 0606  
                l1324 0624                  l1308 05E8                  l1260 01BD                  l1510 0451  
                l1502 043A                  l1430 077F                  l1422 0766                  l1414 0747  
                l1406 0737                  l1350 0685                  l1342 066C                  l1334 064C  
                l1326 0632                  l1318 060D                  l1270 01EE                  l1262 01D8  
                l1600 0528                  l1520 0471                  l1504 0440                  l1512 045D  
                l1440 079D                  l1432 0780                  l1424 076C                  l1416 074D  
                l1408 073A                  l1360 06A1                  l1352 0686                  l1344 0672  
                l1336 0652                  l1328 063C                  l1280 0207                  l1272 01F1  
                l1264 01DB                  l1290 018C                  l1610 0538                  l1602 0529  
                l1530 0484                  l1522 0477                  l1514 0461                  l1506 0443  
                l1450 07BE                  l1442 07A5                  l1434 0786                  l1426 0776  
                l1418 0752                  l1370 06C2                  l1362 06A9                  l1354 068A  
                l1346 067C                  l1338 0657                  l1282 020F                  l1274 01F9  
                l1266 01E3                  l1292 0195                  l1620 0556                  l1612 0543  
                l1604 052F                  l1540 049F                  l1532 0487                  l1524 0478  
                l1516 046A                  l1508 044B                  l1460 07DC                  l1452 07BF  
                l1444 07AB                  l1436 078C                  l1428 0779                  l1380 06E0  
                l1372 06C3                  l1364 06AF                  l1356 0690                  l1348 067F  
                l1284 0212                  l1276 01FC                  l1268 01E6                  l1700 0168  
                l1294 0196                  l1630 056A                  l1622 055A                  l1606 0530  
                l1614 0549                  l1550 04B3                  l1542 04A5                  l1534 0492  
                l1526 047E                  l1518 046E                  l1470 03E8                  l1462 07E2  
                l1454 07C5                  l1446 07B5                  l1438 0791                  l1390 0701  
                l1382 06E8                  l1374 06C9                  l1366 06B9                  l1358 0695  
                l1286 021A                  l1278 0204                  l1702 0174                  l1710 0237  
                l1632 056B                  l1640 0584                  l1624 055D                  l1616 054D  
                l1608 0535                  l1560 04CD                  l1552 04B9                  l1544 04A9  
                l1528 047F                  l1536 0498                  l1480 03FA                  l1472 03EC  
                l1456 07CB                  l1448 07B8                  l1392 0702                  l1384 06EE  
                l1376 06CF                  l1368 06BC                  l1464 07E3                  l1288 021B  
                l1704 0179                  l1296 0142                  l1800 03AA                  l1720 024B  
                l1712 023B                  l1650 0598                  l1642 0588                  l1634 0570  
                l1626 0563                  l1618 0550                  l1570 04E4                  l1554 04BA  
                l1562 04D3                  l1546 04AC                  l1538 049C                  l1482 0400  
                l1490 041D                  l1474 03F0                  l1458 07D0                  l1394 0708  
                l1386 06F8                  l1378 06D4                  l1466 07FD                  l1706 017D  
                l1298 0145                  l1802 03B9                  l1730 0261                  l1722 0251  
                l1714 023D                  l1660 05AB                  l1652 059E                  l1644 058B  
                l1636 0573                  l1628 0564                  l1580 04F5                  l1572 04E7  
                l1564 04D7                  l1556 04BF                  l1548 04B2                  l1492 0421  
                l1484 0403                  l1476 03F3                  l1468 07FF                  l1396 070E  
                l1388 06FB                  l1804 03C2                  l1740 0299                  l1732 0262  
                l1724 0257                  l1716 023F                  l1708 0236                  l1670 05C6  
                l1662 05AE                  l1654 059F                  l1646 0591                  l1638 057E  
                l1590 0512                  l1582 04FA                  l1574 04ED                  l1566 04DA  
                l1558 04C2                  l1494 042C                  l1486 040B                  l1478 03F9  
                l1398 0713                  l1806 03CD                  l1750 02BF                  l1742 029E  
                l1734 026E                  l1726 025D                  l1718 0245                  l1680 0122  
                l1672 05CB                  l1664 05B9                  l1656 05A5                  l1648 0595  
                l1592 0515                  l1584 04FD                  l1576 04EE                  l1568 04E0  
                l1496 0430                  l1488 0411                  l1760 02E8                  l1752 02C7  
                l1744 02A6                  l1808 03CE                  l1736 0274                  l1728 0260  
                l1682 0123                  l1658 05A6                  l1666 05BF                  l1594 051B  
                l1586 0508                  l1578 04F4                  l1498 0433                  l1674 05CC  
                l1690 0100                  l1770 0326                  l1762 02F3                  l1754 02D2  
                l1746 02B1                  l1738 0290                  l1684 0130                  l1676 011D  
                l1668 05C3                  l1596 051F                  l1588 050E                  l1692 0106  
                l1780 0355                  l1772 0335                  l1764 0303                  l1756 02DB  
                l1748 02BA                  l1686 0133                  l1678 0120                  l1598 0522  
                l1694 010E                  l1790 0374                  l1782 035E                  l1774 033F  
                l1766 030D                  l1758 02E0                  l1696 0113                  l1688 00EB  
                l1792 037D                  l1784 0363                  l1776 0348                  l1768 031C  
                l1698 0167                  l1794 038C                  l1786 0367                  l1778 0349  
                l1796 039B                  l1788 0369                  l1798 03A3                  STR_1 0016  
                STR_2 0009                  u1000 079C                  u1001 079B                  u1010 07AA  
                u1011 07A9                  u1100 045C                  u1020 07BD                  u1101 045B  
                u1021 07BC                  u1110 0476                  u1030 07C5                  u1111 0475  
                u1031 07C4                  u1200 0527                  u1120 047E                  u1040 07DB  
                u1201 0526                  u1121 047D                  u1041 07DA                  u1210 052F  
                u1130 0497                  u1050 03F8                  u1211 052E                  u1131 0496  
                u1051 03F7                  u1220 0548                  u1140 04B1                  u1060 0400  
                u1300 017D                  u1221 0547                  u1141 04B0                  u1061 03FF  
                u1230 0562                  u1150 04B9                  u1070 041C                  u1310 0189  
                u2007 05A8                  u1231 0561                  u1151 04B8                  u1071 041B  
                u1311 0188                  u1240 056A                  u1160 04D2                  u1080 0438  
                u1320 029E                  u2017 05B0                  u1241 0569                  u1161 04D1  
                u1081 0437                  u1321 029D                  u1250 0583                  u1170 04EC  
                u1090 0440                  u1330 02BF                  u2027 05C8                  u1251 0582  
                u1171 04EB                  u1091 043F                  u1331 02BE                  u1260 059D  
                u1180 04F4                  u1340 02E0                  u1261 059C                  u1181 04F3  
                u1341 02DF                  u1270 05A5                  u1190 050D                  u1350 0303  
                u1271 05A4                  u1191 050C                  u1407 05FA                  u1351 0302  
                u1280 05BE                  u1360 031C                  u1281 05BD                  u1417 0615  
                u1361 031B                  u1290 0106                  u1370 0335                  u1507 06A3  
                u1427 0626                  u1291 0105                  u1371 0334                  u1380 038C  
                u1517 06B1                  u1437 0634                  u1381 038B                  u1607 0734  
                u1527 06B6                  u1447 0639                  u1617 074F                  u1537 06D1  
                u1457 0654                  u1385 0388                  u1707 07DE                  u1627 0760  
                u1547 06E2                  u1467 0665                  u1717 03EE                  u1637 076E  
                u1557 06F0                  u1477 0674                  u1397 05F5                  u1807 0481  
                u1727 0405                  u1647 0773                  u1567 06F5                  u1487 0679  
                u1817 0489                  u1737 040D                  u1657 078E                  u1577 0710  
                u1497 0692                  u1907 0517                  u1827 04A1                  u1747 0426  
                u1667 079F                  u1587 0721                  u1917 051D                  u1837 04A7  
                u1757 042E                  u1677 07AD                  u1597 072F                  u1927 0532  
                u1847 04BC                  u1767 0445                  u1687 07B2                  u1937 053A  
                u1857 04C4                  u1777 044D                  u1697 07CD                  u1947 0552  
                u1867 04DC                  u1787 0466                  u1957 0558                  u1877 04E2  
                u1797 046C                  u1967 056D                  u1887 04F7                  u1977 0575  
                u1897 04FF                  u1987 058D                  u1997 0593                  _main 0236  
                btemp 007E          lcd_goto@data 007A                  start 0000     uart_write@channel 0073  
               ?_main 0070                 _PORTB 0006                 _TRISA 0085                 _TRISB 0086  
               _TRISC 0087       __end_of_lcd_clr 00FF                 _delay 018C                 pclath 000A  
               status 0003                 wtemp0 007E          __end_of_main 03E7                ??_main 007B  
    main@data_to_read 007C                ?_delay 0070          ?_send_config 0070                _ADCON1 009F  
        ?_send_string 0070                _TRISC0 0438                _TRISC1 0439                _TRISC2 043A  
              _TRISC3 043B      __end_of_lcd_goto 011C             ??_lcd_clr 0079        __pcstackCOMMON 0070  
       __end_of_delay 01BC               ??_delay 0074            __pbssBANK0 0020            __pmaintext 0236  
  __size_of_send_char 0025    __size_of_uart_init 007A    __size_of_uart_read 0219             ?_lcd_goto 0070  
__size_of_send_config 0025  __size_of_send_string 0026            _dummy_byte 007D               _lcd_clr 00EB  
          ??_lcd_goto 0079  end_of_initialization 00E7     __end_of_send_char 0141      uart_init@channel 0070  
   __end_of_uart_init 0236     __end_of_uart_read 0800      uart_read@channel 0073         send_char@data 0078  
          _uart_write 03E7           uart_write@i 0074   start_initialization 00E2           ?_uart_write 0070  
         __pbssCOMMON 007D     __size_of_lcd_goto 001D             __ptext200 011C             __ptext201 018C  
           __ptext202 0000             __ptext193 00EB             __ptext194 00FF             __ptext195 0141  
           __ptext196 0166             __ptext197 01BC             __ptext198 05E7             __ptext199 03E7  
           __pstrings 0003              ?_lcd_clr 0070         ??_send_config 0078        __size_of_delay 0030  
           delay@data 0070         ??_send_string 0079   __size_of_uart_write 0200             _send_char 011C  
           _uart_init 01BC             _uart_read 05E7            uart_read@i 0075       uart_read@result 0074  
         __stringbase 0008   __end_of_send_config 0166            ?_send_char 0070          send_string@s 007A  
 __end_of_send_string 018C            ?_uart_init 0070            ?_uart_read 0070      __size_of_lcd_clr 0014  
            _lcd_goto 00FF         __size_of_main 01B1          ??_uart_write 0071           _send_config 0141  
 uart_read@dummy_mask 0072           _send_string 0166           ??_send_char 0078    __end_of_uart_write 05E7  
           stringcode 0003           ??_uart_init 0070           ??_uart_read 0070              stringdir 0003  
            stringtab 0003  
