

HI-TECH Software PIC LITE Macro Assembler V9.80 build 6738 
                                                                                               Wed Jun 20 23:22:08 2012

HI-TECH Software Omniscient Code Generator (Lite mode) build 6738
     1  0000                     opt subtitle "HI-TECH Software Omniscient Code Generator (Lite mode) build 6738"
     2                           
     3                           opt pagewidth 120
     4                           
     5                           	opt lm
     6                           
     7                           	processor	16F876A
     8                           clrc	macro
     9                           	bcf	3,0
    10  0000                     	endm
    11                           clrz	macro
    12                           	bcf	3,2
    13  0000                     	endm
    14                           setc	macro
    15                           	bsf	3,0
    16  0000                     	endm
    17                           setz	macro
    18                           	bsf	3,2
    19  0000                     	endm
    20                           skipc	macro
    21                           	btfss	3,0
    22  0000                     	endm
    23                           skipz	macro
    24                           	btfss	3,2
    25  0000                     	endm
    26                           skipnc	macro
    27                           	btfsc	3,0
    28  0000                     	endm
    29                           skipnz	macro
    30                           	btfsc	3,2
    31  0000                     	endm
    32  0000                     indf	equ	0
    33  0000                     indf0	equ	0
    34  0002                     pc	equ	2
    35  0002                     pcl	equ	2
    36  0003                     status	equ	3
    37  0004                     fsr	equ	4
    38  0004                     fsr0	equ	4
    39  0001                     c	equ	1
    40  0000                     z	equ	0
    41  000A                     pclath	equ	10
    42                           # 14 "C:\Users\Phang\Desktop\9.80\PR 27\Slave_Programmed UART_1\Slave_Programmed UART_1.
                                 c"
    43                           	psect config,class=CONFIG,delta=2 ;#
    44                           # 14 "C:\Users\Phang\Desktop\9.80\PR 27\Slave_Programmed UART_1\Slave_Programmed UART_1.
                                 c"
    45  2007  3F32               	dw 0x3F32 ;#
    46                           	FNCALL	_main,_send_config
    47                           	FNCALL	_main,_lcd_clr
    48                           	FNCALL	_main,_lcd_goto
    49                           	FNCALL	_main,_send_string
    50                           	FNCALL	_main,_uart_init
    51                           	FNCALL	_main,_uart_read
    52                           	FNCALL	_main,_uart_write
    53                           	FNCALL	_main,_send_char
    54                           	FNCALL	_send_string,_send_char
    55                           	FNCALL	_lcd_goto,_send_config
    56                           	FNCALL	_lcd_clr,_send_config
    57                           	FNCALL	_lcd_clr,_delay
    58                           	FNCALL	_send_char,_delay
    59                           	FNCALL	_send_config,_delay
    60                           	FNROOT	_main
    61                           	global	_k
    62                           	global	_m
    63                           	global	_dummy_byte
    64                           	global	_PORTB
    65                           psect	text228,local,class=CODE,delta=2
    66                           global __ptext228
    67  0000                     __ptext228:
    68  0006                     _PORTB	set	6
    69                           	global	_RA0
    70  0028                     _RA0	set	40
    71                           	global	_RA1
    72  0029                     _RA1	set	41
    73                           	global	_RA2
    74  002A                     _RA2	set	42
    75                           	global	_RA3
    76  002B                     _RA3	set	43
    77                           	global	_RA4
    78  002C                     _RA4	set	44
    79                           	global	_RA5
    80  002D                     _RA5	set	45
    81                           	global	_RC0
    82  0038                     _RC0	set	56
    83                           	global	_RC1
    84  0039                     _RC1	set	57
    85                           	global	_RC2
    86  003A                     _RC2	set	58
    87                           	global	_RC3
    88  003B                     _RC3	set	59
    89                           	global	_RC4
    90  003C                     _RC4	set	60
    91                           	global	_RC5
    92  003D                     _RC5	set	61
    93                           	global	_ADCON1
    94  009F                     _ADCON1	set	159
    95                           	global	_TRISA
    96  0085                     _TRISA	set	133
    97                           	global	_TRISB
    98  0086                     _TRISB	set	134
    99                           	global	_TRISC
   100  0087                     _TRISC	set	135
   101                           	global	_TRISC0
   102  0438                     _TRISC0	set	1080
   103                           	global	_TRISC1
   104  0439                     _TRISC1	set	1081
   105                           	global	_TRISC2
   106  043A                     _TRISC2	set	1082
   107                           	global	_TRISC3
   108  043B                     _TRISC3	set	1083
   109                           psect	strings,class=STRING,delta=2
   110                           global __pstrings
   111  0003                     __pstrings:
   112                           ;	global	stringdir,stringtab,__stringbase
   113  0003                     stringtab:
   114                           ;	String table - string pointers are 1 byte each
   115  0003                     stringcode:stringdir:
      + 0003                     stringdir:	
   116  0003  3000               movlw high(stringdir)
   117  0004  008A               movwf pclath
   118  0005  0804               movf fsr,w
   119  0006  0A84               incf fsr
   120  0007  0782               	addwf pc
   121  0008                     __stringbase:
   122  0008  3400               	retlw	0
   123                           psect	strings
   124                           	
   125  0009                     STR_2:	
   126  0009  3453               	retlw	83	;'S'
   127  000A  344C               	retlw	76	;'L'
   128  000B  3441               	retlw	65	;'A'
   129  000C  3456               	retlw	86	;'V'
   130  000D  3445               	retlw	69	;'E'
   131  000E  3420               	retlw	32	;' '
   132  000F  3455               	retlw	85	;'U'
   133  0010  3441               	retlw	65	;'A'
   134  0011  3452               	retlw	82	;'R'
   135  0012  3454               	retlw	84	;'T'
   136  0013  345F               	retlw	95	;'_'
   137  0014  3431               	retlw	49	;'1'
   138  0015  3400               	retlw	0
   139                           psect	strings
   140                           	
   141  0016                     STR_1:	
   142  0016  3443               	retlw	67	;'C'
   143  0017  3479               	retlw	121	;'y'
   144  0018  3474               	retlw	116	;'t'
   145  0019  3472               	retlw	114	;'r'
   146  001A  346F               	retlw	111	;'o'
   147  001B  346E               	retlw	110	;'n'
   148  001C  3420               	retlw	32	;' '
   149  001D  3450               	retlw	80	;'P'
   150  001E  3452               	retlw	82	;'R'
   151  001F  3432               	retlw	50	;'2'
   152  0020  3437               	retlw	55	;'7'
   153  0021  3400               	retlw	0
   154                           psect	strings
   155                           	file	"Internal Programmer.as"
   156                           	line	#
   157                           psect cinit,class=CODE,delta=2
   158                           global start_initialization
   159  0079                     start_initialization:
   160                           
   161                           psect	bssCOMMON,class=COMMON,space=1
   162                           global __pbssCOMMON
   163  007D                     __pbssCOMMON:
   164  007D                     _dummy_byte:
   165  007D                            ds      1
   166                           
   167                           psect	bssBANK0,class=BANK0,space=1
   168                           global __pbssBANK0
   169  0020                     __pbssBANK0:
   170  0020                     _k:
   171  0020                            ds      2
   172                           
   173  0022                     _m:
   174  0022                            ds      2
   175                           
   176                           ; Clear objects allocated to COMMON
   177                           psect cinit,class=CODE,delta=2
   178  0079  01FD               	clrf	((__pbssCOMMON)+0)&07Fh
   179                           ; Clear objects allocated to BANK0
   180                           psect cinit,class=CODE,delta=2
   181  007A  01A0               	clrf	((__pbssBANK0)+0)&07Fh
   182  007B  01A1               	clrf	((__pbssBANK0)+1)&07Fh
   183  007C  01A2               	clrf	((__pbssBANK0)+2)&07Fh
   184  007D  01A3               	clrf	((__pbssBANK0)+3)&07Fh
   185                           psect cinit,class=CODE,delta=2
   186                           global end_of_initialization
   187                           
   188                           ;End of C runtime variable initialization code
   189                           
   190  007E                     end_of_initialization:
   191  007E  0183               clrf status
   192  007F  120A  118A  29E5   ljmp _main	;jump to C main() function
   193                           psect	cstackCOMMON,class=COMMON,space=1
   194                           global __pcstackCOMMON
   195  0070                     __pcstackCOMMON:
   196                           	global	?_send_config
   197  0070                     ?_send_config:	; 0 bytes @ 0x0
   198                           	global	?_lcd_clr
   199  0070                     ?_lcd_clr:	; 0 bytes @ 0x0
   200                           	global	?_lcd_goto
   201  0070                     ?_lcd_goto:	; 0 bytes @ 0x0
   202                           	global	?_send_string
   203  0070                     ?_send_string:	; 0 bytes @ 0x0
   204                           	global	?_uart_init
   205  0070                     ?_uart_init:	; 0 bytes @ 0x0
   206                           	global	??_uart_init
   207  0070                     ??_uart_init:	; 0 bytes @ 0x0
   208                           	global	??_uart_read
   209  0070                     ??_uart_read:	; 0 bytes @ 0x0
   210                           	global	?_uart_write
   211  0070                     ?_uart_write:	; 0 bytes @ 0x0
   212                           	global	?_send_char
   213  0070                     ?_send_char:	; 0 bytes @ 0x0
   214                           	global	?_main
   215  0070                     ?_main:	; 0 bytes @ 0x0
   216                           	global	?_delay
   217  0070                     ?_delay:	; 0 bytes @ 0x0
   218                           	global	?_uart_read
   219  0070                     ?_uart_read:	; 1 bytes @ 0x0
   220                           	global	uart_init@channel
   221  0070                     uart_init@channel:	; 1 bytes @ 0x0
   222                           	global	uart_write@data
   223  0070                     uart_write@data:	; 1 bytes @ 0x0
   224                           	global	delay@data
   225  0070                     delay@data:	; 4 bytes @ 0x0
   226  0070                     	ds	1
   227                           	global	??_uart_write
   228  0071                     ??_uart_write:	; 0 bytes @ 0x1
   229  0071                     	ds	1
   230                           	global	uart_read@dummy_mask
   231  0072                     uart_read@dummy_mask:	; 1 bytes @ 0x2
   232  0072                     	ds	1
   233                           	global	uart_write@channel
   234  0073                     uart_write@channel:	; 1 bytes @ 0x3
   235                           	global	uart_read@channel
   236  0073                     uart_read@channel:	; 1 bytes @ 0x3
   237  0073                     	ds	1
   238                           	global	??_delay
   239  0074                     ??_delay:	; 0 bytes @ 0x4
   240                           	global	uart_write@i
   241  0074                     uart_write@i:	; 1 bytes @ 0x4
   242                           	global	uart_read@result
   243  0074                     uart_read@result:	; 1 bytes @ 0x4
   244  0074                     	ds	1
   245                           	global	uart_read@i
   246  0075                     uart_read@i:	; 1 bytes @ 0x5
   247  0075                     	ds	3
   248                           	global	??_send_config
   249  0078                     ??_send_config:	; 0 bytes @ 0x8
   250                           	global	??_send_char
   251  0078                     ??_send_char:	; 0 bytes @ 0x8
   252                           	global	send_config@data
   253  0078                     send_config@data:	; 1 bytes @ 0x8
   254                           	global	send_char@data
   255  0078                     send_char@data:	; 1 bytes @ 0x8
   256  0078                     	ds	1
   257                           	global	??_lcd_clr
   258  0079                     ??_lcd_clr:	; 0 bytes @ 0x9
   259                           	global	??_lcd_goto
   260  0079                     ??_lcd_goto:	; 0 bytes @ 0x9
   261                           	global	??_send_string
   262  0079                     ??_send_string:	; 0 bytes @ 0x9
   263  0079                     	ds	1
   264                           	global	send_string@s
   265  007A                     send_string@s:	; 1 bytes @ 0xA
   266                           	global	lcd_goto@data
   267  007A                     lcd_goto@data:	; 1 bytes @ 0xA
   268  007A                     	ds	1
   269                           	global	??_main
   270  007B                     ??_main:	; 0 bytes @ 0xB
   271  007B                     	ds	1
   272                           	global	main@data_to_read
   273  007C                     main@data_to_read:	; 1 bytes @ 0xC
   274  007C                     	ds	1
   275 ;;Data sizes: Strings 25, constant 0, data 0, bss 5, persistent 0 stack 0
   276 ;;Auto spaces:   Size  Autos    Used
   277 ;; COMMON          14     13      14
   278 ;; BANK0           80      0       4
   279 ;; BANK1           80      0       0
   280 ;; BANK3           96      0       0
   281 ;; BANK2           96      0       0
   282                           
   283 ;;
   284 ;; Pointer list with targets:
   285                           
   286 ;; send_string@s	PTR const unsigned char  size(1) Largest target is 13
   287 ;;		 -> STR_2(CODE[13]), STR_1(CODE[12]), 
   288 ;;
   289                           
   290                           
   291 ;;
   292 ;; Critical Paths under _main in COMMON
   293 ;;
   294 ;;   _main->_lcd_goto
   295 ;;   _main->_send_string
   296 ;;   _send_string->_send_char
   297 ;;   _lcd_goto->_send_config
   298 ;;   _lcd_clr->_send_config
   299 ;;   _send_char->_delay
   300 ;;   _send_config->_delay
   301 ;;
   302 ;; Critical Paths under _main in BANK0
   303 ;;
   304 ;;   None.
   305 ;;
   306 ;; Critical Paths under _main in BANK1
   307 ;;
   308 ;;   None.
   309 ;;
   310 ;; Critical Paths under _main in BANK3
   311 ;;
   312 ;;   None.
   313 ;;
   314 ;; Critical Paths under _main in BANK2
   315 ;;
   316 ;;   None.
   317                           
   318 ;;
   319 ;;Main: autosize = 0, tempsize = 1, incstack = 0, save=0
   320 ;;
   321                           
   322 ;;
   323 ;;Call Graph Tables:
   324 ;;
   325 ;; ---------------------------------------------------------------------------------
   326 ;; (Depth) Function   	        Calls       Base Space   Used Autos Params    Refs
   327 ;; ---------------------------------------------------------------------------------
   328 ;; (0) _main                                                 2     2      0    2413
   329 ;;                                             11 COMMON     2     2      0
   330 ;;                        _send_config
   331 ;;                            _lcd_clr
   332 ;;                           _lcd_goto
   333 ;;                        _send_string
   334 ;;                          _uart_init
   335 ;;                          _uart_read
   336 ;;                         _uart_write
   337 ;;                          _send_char
   338 ;; ---------------------------------------------------------------------------------
   339 ;; (1) _send_string                                          2     2      0     134
   340 ;;                                              9 COMMON     2     2      0
   341 ;;                          _send_char
   342 ;; ---------------------------------------------------------------------------------
   343 ;; (1) _lcd_goto                                             2     2      0     156
   344 ;;                                              9 COMMON     2     2      0
   345 ;;                        _send_config
   346 ;; ---------------------------------------------------------------------------------
   347 ;; (1) _lcd_clr                                              0     0      0     112
   348 ;;                        _send_config
   349 ;;                              _delay
   350 ;; ---------------------------------------------------------------------------------
   351 ;; (1) _send_char                                            1     1      0      67
   352 ;;                                              8 COMMON     1     1      0
   353 ;;                              _delay
   354 ;; ---------------------------------------------------------------------------------
   355 ;; (1) _uart_write                                           5     4      1     918
   356 ;;                                              0 COMMON     5     4      1
   357 ;; ---------------------------------------------------------------------------------
   358 ;; (1) _uart_read                                            6     6      0     775
   359 ;;                                              0 COMMON     6     6      0
   360 ;; ---------------------------------------------------------------------------------
   361 ;; (2) _send_config                                          1     1      0      67
   362 ;;                                              8 COMMON     1     1      0
   363 ;;                              _delay
   364 ;; ---------------------------------------------------------------------------------
   365 ;; (2) _delay                                                8     4      4      45
   366 ;;                                              0 COMMON     8     4      4
   367 ;; ---------------------------------------------------------------------------------
   368 ;; (1) _uart_init                                            1     1      0      22
   369 ;;                                              0 COMMON     1     1      0
   370 ;; ---------------------------------------------------------------------------------
   371 ;; Estimated maximum stack depth 2
   372 ;; ---------------------------------------------------------------------------------
   373                           
   374 ;; Call Graph Graphs:
   375                           
   376 ;; _main (ROOT)
   377 ;;   _send_config
   378 ;;     _delay
   379 ;;   _lcd_clr
   380 ;;     _send_config
   381 ;;       _delay
   382 ;;     _delay
   383 ;;   _lcd_goto
   384 ;;     _send_config
   385 ;;       _delay
   386 ;;   _send_string
   387 ;;     _send_char
   388 ;;       _delay
   389 ;;   _uart_init
   390 ;;   _uart_read
   391 ;;   _uart_write
   392 ;;   _send_char
   393 ;;     _delay
   394 ;;
   395                           
   396 ;; Address spaces:
   397                           
   398 ;;Name               Size   Autos  Total    Cost      Usage
   399 ;;BITCOMMON            E      0       0       0        0.0%
   400 ;;EEDATA             100      0       0       0        0.0%
   401 ;;NULL                 0      0       0       0        0.0%
   402 ;;CODE                 0      0       0       0        0.0%
   403 ;;COMMON               E      D       E       1      100.0%
   404 ;;BITSFR0              0      0       0       1        0.0%
   405 ;;SFR0                 0      0       0       1        0.0%
   406 ;;BITSFR1              0      0       0       2        0.0%
   407 ;;SFR1                 0      0       0       2        0.0%
   408 ;;STACK                0      0       3       2        0.0%
   409 ;;ABS                  0      0      12       3        0.0%
   410 ;;BITBANK0            50      0       0       4        0.0%
   411 ;;BITSFR3              0      0       0       4        0.0%
   412 ;;SFR3                 0      0       0       4        0.0%
   413 ;;BANK0               50      0       4       5        5.0%
   414 ;;BITSFR2              0      0       0       5        0.0%
   415 ;;SFR2                 0      0       0       5        0.0%
   416 ;;BITBANK1            50      0       0       6        0.0%
   417 ;;BANK1               50      0       0       7        0.0%
   418 ;;BITBANK3            60      0       0       8        0.0%
   419 ;;BANK3               60      0       0       9        0.0%
   420 ;;BITBANK2            60      0       0      10        0.0%
   421 ;;BANK2               60      0       0      11        0.0%
   422 ;;DATA                 0      0      15      12        0.0%
   423                           
   424                           	global	_main
   425                           psect	maintext,global,class=CODE,delta=2
   426                           global __pmaintext
   427  01E5                     __pmaintext:
   428                           
   429 ;; *************** function _main *****************
   430 ;; Defined at:
   431 ;;		line 45 in file "C:\Users\Phang\Desktop\9.80\PR 27\Slave_Programmed UART_1\Slave_Programmed UART_1.c"
   432 ;; Parameters:    Size  Location     Type
   433 ;;		None
   434 ;; Auto vars:     Size  Location     Type
   435 ;;  data_to_read    1   12[COMMON] unsigned char 
   436 ;; Return value:  Size  Location     Type
   437 ;;		None               void
   438 ;; Registers used:
   439 ;;		wreg, fsr0l, fsr0h, status,2, status,0, btemp+1, pclath, cstack
   440 ;; Tracked objects:
   441 ;;		On entry : 17F/0
   442 ;;		On exit  : 0/0
   443 ;;		Unchanged: 0/0
   444 ;; Data sizes:     COMMON   BANK0   BANK1   BANK3   BANK2
   445 ;;      Params:         0       0       0       0       0
   446 ;;      Locals:         1       0       0       0       0
   447 ;;      Temps:          1       0       0       0       0
   448 ;;      Totals:         2       0       0       0       0
   449 ;;Total ram usage:        2 bytes
   450 ;; Hardware stack levels required when called:    3
   451 ;; This function calls:
   452 ;;		_send_config
   453 ;;		_lcd_clr
   454 ;;		_lcd_goto
   455 ;;		_send_string
   456 ;;		_uart_init
   457 ;;		_uart_read
   458 ;;		_uart_write
   459 ;;		_send_char
   460 ;; This function is called by:
   461 ;;		Startup code after reset
   462 ;; This function uses a non-reentrant model
   463 ;;
   464                           psect	maintext
   465                           	file	"C:\Users\Phang\Desktop\9.80\PR 27\Slave_Programmed UART_1\Slave_Programmed UART_1
                                 .c"
   466                           	line	45
   467                           	global	__size_of_main
   468  01C6                     	__size_of_main	equ	__end_of_main-_main
   469                           	
   470  01E5                     _main:	
   471                           	opt	stack 5
   472                           ; Regs used in _main: [wreg-fsr0h+status,2+status,0+btemp+1+pclath+cstack]
   473                           	line	47
   474                           	
   475  01E5                     l3392:	
   476                           ;Slave_Programmed UART_1.c: 47: unsigned char data_to_read=0;
   477  01E5  1003               	clrc
   478  01E6  3000               	movlw	0
   479  01E7  1803               	btfsc	status,0
   480  01E8  3001               	movlw	1
   481  01E9  00FC               	movwf	(main@data_to_read)
   482                           	line	50
   483                           	
   484  01EA                     l3394:	
   485                           ;Slave_Programmed UART_1.c: 50: TRISB = 0b00000000;
   486  01EA  1683               	bsf	status, 5	;RP0=1, select bank1
   487  01EB  1303               	bcf	status, 6	;RP1=0, select bank1
   488  01EC  0186               	clrf	(134)^080h	;volatile
   489                           	line	51
   490                           	
   491  01ED                     l3396:	
   492                           ;Slave_Programmed UART_1.c: 51: TRISC = 0b00000000;
   493  01ED  0187               	clrf	(135)^080h	;volatile
   494                           	line	52
   495                           	
   496  01EE                     l3398:	
   497                           ;Slave_Programmed UART_1.c: 52: TRISA = 0b00011100;
   498  01EE  301C               	movlw	(01Ch)
   499  01EF  0085               	movwf	(133)^080h	;volatile
   500                           	line	53
   501                           	
   502  01F0                     l3400:	
   503                           ;Slave_Programmed UART_1.c: 53: ADCON1 = 0b00000110;
   504  01F0  3006               	movlw	(06h)
   505  01F1  009F               	movwf	(159)^080h	;volatile
   506                           	line	56
   507                           	
   508  01F2                     l3402:	
   509                           ;Slave_Programmed UART_1.c: 56: send_config(0b00000001);
   510  01F2  3001               	movlw	(01h)
   511  01F3  120A  118A  20B3   	fcall	_send_config
              120A  118A         
   512                           	line	57
   513                           	
   514  01F8                     l3404:	
   515                           ;Slave_Programmed UART_1.c: 57: send_config(0b00000010);
   516  01F8  3002               	movlw	(02h)
   517  01F9  120A  118A  20B3   	fcall	_send_config
              120A  118A         
   518                           	line	58
   519                           	
   520  01FE                     l3406:	
   521                           ;Slave_Programmed UART_1.c: 58: send_config(0b00000110);
   522  01FE  3006               	movlw	(06h)
   523  01FF  120A  118A  20B3   	fcall	_send_config
              120A  118A         
   524                           	line	59
   525                           	
   526  0204                     l3408:	
   527                           ;Slave_Programmed UART_1.c: 59: send_config(0b00001100);
   528  0204  300C               	movlw	(0Ch)
   529  0205  120A  118A  20B3   	fcall	_send_config
              120A  118A         
   530                           	line	60
   531                           	
   532  020A                     l3410:	
   533                           ;Slave_Programmed UART_1.c: 60: send_config(0b00111000);
   534  020A  3038               	movlw	(038h)
   535  020B  120A  118A  20B3   	fcall	_send_config
              120A  118A         
   536                           	line	63
   537                           	
   538  0210                     l3412:	
   539                           ;Slave_Programmed UART_1.c: 63: RA1=0;
   540  0210  1283               	bcf	status, 5	;RP0=0, select bank0
   541  0211  1303               	bcf	status, 6	;RP1=0, select bank0
   542  0212  1085               	bcf	(41/8),(41)&7
   543                           	line	64
   544                           	
   545  0213                     l3414:	
   546                           ;Slave_Programmed UART_1.c: 64: RA0=0;
   547  0213  1005               	bcf	(40/8),(40)&7
   548                           	line	65
   549                           	
   550  0214                     l3416:	
   551                           ;Slave_Programmed UART_1.c: 65: RA5=0;
   552  0214  1285               	bcf	(45/8),(45)&7
   553                           	line	66
   554                           	
   555  0215                     l3418:	
   556                           ;Slave_Programmed UART_1.c: 66: PORTB=0;
   557  0215  0186               	clrf	(6)	;volatile
   558                           	line	67
   559                           	
   560  0216                     l3420:	
   561                           ;Slave_Programmed UART_1.c: 67: lcd_clr();
   562  0216  120A  118A  2082   	fcall	_lcd_clr
              120A  118A         
   563                           	line	68
   564                           	
   565  021B                     l3422:	
   566                           ;Slave_Programmed UART_1.c: 68: lcd_goto(0);
   567  021B  3000               	movlw	(0)
   568  021C  120A  118A  2096   	fcall	_lcd_goto
              120A  118A         
   569                           	line	69
   570                           	
   571  0221                     l3424:	
   572                           ;Slave_Programmed UART_1.c: 69: send_string("Cytron PR27");
   573  0221  300E               	movlw	((STR_1-__stringbase))&0ffh
   574  0222  120A  118A  20FD   	fcall	_send_string
              120A  118A         
   575                           	line	70
   576                           	
   577  0227                     l3426:	
   578                           ;Slave_Programmed UART_1.c: 70: lcd_goto(20);
   579  0227  3014               	movlw	(014h)
   580  0228  120A  118A  2096   	fcall	_lcd_goto
              120A  118A         
   581                           	line	71
   582                           	
   583  022D                     l3428:	
   584                           ;Slave_Programmed UART_1.c: 71: send_string("SLAVE UART_1");
   585  022D  3001               	movlw	((STR_2-__stringbase))&0ffh
   586  022E  120A  118A  20FD   	fcall	_send_string
              120A  118A         
   587                           	line	72
   588                           	
   589  0233                     l3430:	
   590                           ;Slave_Programmed UART_1.c: 72: uart_init(1);
   591  0233  3001               	movlw	(01h)
   592  0234  120A  118A  2153   	fcall	_uart_init
              120A  118A         
   593  0239  2A3A               	goto	l3432
   594                           	line	84
   595                           ;Slave_Programmed UART_1.c: 84: while(1)
   596                           	
   597  023A                     l515:	
   598                           	line	86
   599                           	
   600  023A                     l3432:	
   601                           ;Slave_Programmed UART_1.c: 85: {
   602                           ;Slave_Programmed UART_1.c: 86: data_to_read=uart_read(1);
   603  023A  3001               	movlw	(01h)
   604  023B  120A  118A  23AB   	fcall	_uart_read
              120A  118A         
   605  0240  00FB               	movwf	(??_main+0)+0
   606  0241  087B               	movf	(??_main+0)+0,w
   607  0242  00FC               	movwf	(main@data_to_read)
   608                           	line	88
   609                           ;Slave_Programmed UART_1.c: 88: switch(data_to_read)
   610  0243  2B92               	goto	l3504
   611                           	line	90
   612                           ;Slave_Programmed UART_1.c: 89: {
   613                           ;Slave_Programmed UART_1.c: 90: case 1:
   614                           	
   615  0244                     l517:	
   616                           	line	91
   617                           	
   618  0244                     l3434:	
   619                           ;Slave_Programmed UART_1.c: 91: data_to_read=uart_read(1);
   620  0244  3001               	movlw	(01h)
   621  0245  120A  118A  23AB   	fcall	_uart_read
              120A  118A         
   622  024A  00FB               	movwf	(??_main+0)+0
   623  024B  087B               	movf	(??_main+0)+0,w
   624  024C  00FC               	movwf	(main@data_to_read)
   625                           	line	92
   626                           	
   627  024D                     l3436:	
   628                           ;Slave_Programmed UART_1.c: 92: if(data_to_read==0)RA1=0;
   629  024D  08FC               	movf	(main@data_to_read),f
   630  024E  1D03               	skipz
   631  024F  2A51               	goto	u3451
   632  0250  2A52               	goto	u3450
   633  0251                     u3451:
   634  0251  2A56               	goto	l518
   635  0252                     u3450:
   636                           	
   637  0252                     l3438:	
   638  0252  1283               	bcf	status, 5	;RP0=0, select bank0
   639  0253  1303               	bcf	status, 6	;RP1=0, select bank0
   640  0254  1085               	bcf	(41/8),(41)&7
   641  0255  2A5A               	goto	l3440
   642                           	line	93
   643                           	
   644  0256                     l518:	
   645                           ;Slave_Programmed UART_1.c: 93: else RA1=1;
   646  0256  1283               	bcf	status, 5	;RP0=0, select bank0
   647  0257  1303               	bcf	status, 6	;RP1=0, select bank0
   648  0258  1485               	bsf	(41/8),(41)&7
   649  0259  2A5A               	goto	l3440
   650                           	
   651  025A                     l519:	
   652                           	line	94
   653                           	
   654  025A                     l3440:	
   655                           ;Slave_Programmed UART_1.c: 94: uart_write(1,'a');
   656  025A  3061               	movlw	(061h)
   657  025B  00FB               	movwf	(??_main+0)+0
   658  025C  087B               	movf	(??_main+0)+0,w
   659  025D  00F0               	movwf	(?_uart_write)
   660  025E  3001               	movlw	(01h)
   661  025F  120A  118A  25D0   	fcall	_uart_write
              120A  118A         
   662                           	line	95
   663                           ;Slave_Programmed UART_1.c: 95: break;
   664  0264  2A3A               	goto	l3432
   665                           	line	97
   666                           ;Slave_Programmed UART_1.c: 97: case 2:
   667                           	
   668  0265                     l521:	
   669                           	line	98
   670                           	
   671  0265                     l3442:	
   672                           ;Slave_Programmed UART_1.c: 98: data_to_read=uart_read(1);
   673  0265  3001               	movlw	(01h)
   674  0266  120A  118A  23AB   	fcall	_uart_read
              120A  118A         
   675  026B  00FB               	movwf	(??_main+0)+0
   676  026C  087B               	movf	(??_main+0)+0,w
   677  026D  00FC               	movwf	(main@data_to_read)
   678                           	line	99
   679                           	
   680  026E                     l3444:	
   681                           ;Slave_Programmed UART_1.c: 99: if(data_to_read==0)RA0=0;
   682  026E  08FC               	movf	(main@data_to_read),f
   683  026F  1D03               	skipz
   684  0270  2A72               	goto	u3461
   685  0271  2A73               	goto	u3460
   686  0272                     u3461:
   687  0272  2A77               	goto	l522
   688  0273                     u3460:
   689                           	
   690  0273                     l3446:	
   691  0273  1283               	bcf	status, 5	;RP0=0, select bank0
   692  0274  1303               	bcf	status, 6	;RP1=0, select bank0
   693  0275  1005               	bcf	(40/8),(40)&7
   694  0276  2A7B               	goto	l3448
   695                           	line	100
   696                           	
   697  0277                     l522:	
   698                           ;Slave_Programmed UART_1.c: 100: else RA0=1;
   699  0277  1283               	bcf	status, 5	;RP0=0, select bank0
   700  0278  1303               	bcf	status, 6	;RP1=0, select bank0
   701  0279  1405               	bsf	(40/8),(40)&7
   702  027A  2A7B               	goto	l3448
   703                           	
   704  027B                     l523:	
   705                           	line	101
   706                           	
   707  027B                     l3448:	
   708                           ;Slave_Programmed UART_1.c: 101: uart_write(1,'a');
   709  027B  3061               	movlw	(061h)
   710  027C  00FB               	movwf	(??_main+0)+0
   711  027D  087B               	movf	(??_main+0)+0,w
   712  027E  00F0               	movwf	(?_uart_write)
   713  027F  3001               	movlw	(01h)
   714  0280  120A  118A  25D0   	fcall	_uart_write
              120A  118A         
   715                           	line	102
   716                           ;Slave_Programmed UART_1.c: 102: break;
   717  0285  2A3A               	goto	l3432
   718                           	line	104
   719                           ;Slave_Programmed UART_1.c: 104: case 3:
   720                           	
   721  0286                     l524:	
   722                           	line	105
   723                           	
   724  0286                     l3450:	
   725                           ;Slave_Programmed UART_1.c: 105: data_to_read=uart_read(1);
   726  0286  3001               	movlw	(01h)
   727  0287  120A  118A  23AB   	fcall	_uart_read
              120A  118A         
   728  028C  00FB               	movwf	(??_main+0)+0
   729  028D  087B               	movf	(??_main+0)+0,w
   730  028E  00FC               	movwf	(main@data_to_read)
   731                           	line	106
   732                           	
   733  028F                     l3452:	
   734                           ;Slave_Programmed UART_1.c: 106: if(data_to_read==0)RA5=0;
   735  028F  08FC               	movf	(main@data_to_read),f
   736  0290  1D03               	skipz
   737  0291  2A93               	goto	u3471
   738  0292  2A94               	goto	u3470
   739  0293                     u3471:
   740  0293  2A98               	goto	l525
   741  0294                     u3470:
   742                           	
   743  0294                     l3454:	
   744  0294  1283               	bcf	status, 5	;RP0=0, select bank0
   745  0295  1303               	bcf	status, 6	;RP1=0, select bank0
   746  0296  1285               	bcf	(45/8),(45)&7
   747  0297  2A9C               	goto	l3456
   748                           	line	107
   749                           	
   750  0298                     l525:	
   751                           ;Slave_Programmed UART_1.c: 107: else RA5=1;
   752  0298  1283               	bcf	status, 5	;RP0=0, select bank0
   753  0299  1303               	bcf	status, 6	;RP1=0, select bank0
   754  029A  1685               	bsf	(45/8),(45)&7
   755  029B  2A9C               	goto	l3456
   756                           	
   757  029C                     l526:	
   758                           	line	108
   759                           	
   760  029C                     l3456:	
   761                           ;Slave_Programmed UART_1.c: 108: uart_write(1,'a');
   762  029C  3061               	movlw	(061h)
   763  029D  00FB               	movwf	(??_main+0)+0
   764  029E  087B               	movf	(??_main+0)+0,w
   765  029F  00F0               	movwf	(?_uart_write)
   766  02A0  3001               	movlw	(01h)
   767  02A1  120A  118A  25D0   	fcall	_uart_write
              120A  118A         
   768                           	line	109
   769                           ;Slave_Programmed UART_1.c: 109: break;
   770  02A6  2A3A               	goto	l3432
   771                           	line	111
   772                           ;Slave_Programmed UART_1.c: 111: case 4:
   773                           	
   774  02A7                     l527:	
   775                           	line	112
   776                           	
   777  02A7                     l3458:	
   778                           ;Slave_Programmed UART_1.c: 112: data_to_read=uart_read(1);
   779  02A7  3001               	movlw	(01h)
   780  02A8  120A  118A  23AB   	fcall	_uart_read
              120A  118A         
   781  02AD  00FB               	movwf	(??_main+0)+0
   782  02AE  087B               	movf	(??_main+0)+0,w
   783  02AF  00FC               	movwf	(main@data_to_read)
   784                           	line	113
   785                           ;Slave_Programmed UART_1.c: 113: switch(data_to_read)
   786  02B0  2B09               	goto	l3474
   787                           	line	116
   788                           ;Slave_Programmed UART_1.c: 114: {
   789                           ;Slave_Programmed UART_1.c: 116: case 1:
   790                           	
   791  02B1                     l529:	
   792                           	line	117
   793                           ;Slave_Programmed UART_1.c: 117: if(RA2)uart_write(1,1);
   794  02B1  1283               	bcf	status, 5	;RP0=0, select bank0
   795  02B2  1303               	bcf	status, 6	;RP1=0, select bank0
   796  02B3  1D05               	btfss	(42/8),(42)&7
   797  02B4  2AB6               	goto	u3481
   798  02B5  2AB7               	goto	u3480
   799  02B6                     u3481:
   800  02B6  2AC1               	goto	l3462
   801  02B7                     u3480:
   802                           	
   803  02B7                     l3460:	
   804  02B7  01F0               	clrf	(?_uart_write)
   805  02B8  1403               	bsf	status,0
   806  02B9  0DF0               	rlf	(?_uart_write),f
   807  02BA  3001               	movlw	(01h)
   808  02BB  120A  118A  25D0   	fcall	_uart_write
              120A  118A         
   809  02C0  2A3A               	goto	l3432
   810                           	line	118
   811                           	
   812  02C1                     l530:	
   813                           	
   814  02C1                     l3462:	
   815                           ;Slave_Programmed UART_1.c: 118: else uart_write(1,0);
   816  02C1  1003               	clrc
   817  02C2  3000               	movlw	0
   818  02C3  1803               	btfsc	status,0
   819  02C4  3001               	movlw	1
   820  02C5  00F0               	movwf	(?_uart_write)
   821  02C6  3001               	movlw	(01h)
   822  02C7  120A  118A  25D0   	fcall	_uart_write
              120A  118A         
   823  02CC  2A3A               	goto	l3432
   824                           	
   825  02CD                     l531:	
   826                           	line	119
   827                           ;Slave_Programmed UART_1.c: 119: break;
   828  02CD  2A3A               	goto	l3432
   829                           	line	121
   830                           ;Slave_Programmed UART_1.c: 121: case 2:
   831                           	
   832  02CE                     l533:	
   833                           	line	122
   834                           ;Slave_Programmed UART_1.c: 122: if(RA3)uart_write(1,1);
   835  02CE  1283               	bcf	status, 5	;RP0=0, select bank0
   836  02CF  1303               	bcf	status, 6	;RP1=0, select bank0
   837  02D0  1D85               	btfss	(43/8),(43)&7
   838  02D1  2AD3               	goto	u3491
   839  02D2  2AD4               	goto	u3490
   840  02D3                     u3491:
   841  02D3  2ADE               	goto	l3466
   842  02D4                     u3490:
   843                           	
   844  02D4                     l3464:	
   845  02D4  01F0               	clrf	(?_uart_write)
   846  02D5  1403               	bsf	status,0
   847  02D6  0DF0               	rlf	(?_uart_write),f
   848  02D7  3001               	movlw	(01h)
   849  02D8  120A  118A  25D0   	fcall	_uart_write
              120A  118A         
   850  02DD  2A3A               	goto	l3432
   851                           	line	123
   852                           	
   853  02DE                     l534:	
   854                           	
   855  02DE                     l3466:	
   856                           ;Slave_Programmed UART_1.c: 123: else uart_write(1,0);
   857  02DE  1003               	clrc
   858  02DF  3000               	movlw	0
   859  02E0  1803               	btfsc	status,0
   860  02E1  3001               	movlw	1
   861  02E2  00F0               	movwf	(?_uart_write)
   862  02E3  3001               	movlw	(01h)
   863  02E4  120A  118A  25D0   	fcall	_uart_write
              120A  118A         
   864  02E9  2A3A               	goto	l3432
   865                           	
   866  02EA                     l535:	
   867                           	line	124
   868                           ;Slave_Programmed UART_1.c: 124: break;
   869  02EA  2A3A               	goto	l3432
   870                           	line	126
   871                           ;Slave_Programmed UART_1.c: 126: case 3:
   872                           	
   873  02EB                     l536:	
   874                           	line	127
   875                           ;Slave_Programmed UART_1.c: 127: if(RA4)uart_write(1,1);
   876  02EB  1283               	bcf	status, 5	;RP0=0, select bank0
   877  02EC  1303               	bcf	status, 6	;RP1=0, select bank0
   878  02ED  1E05               	btfss	(44/8),(44)&7
   879  02EE  2AF0               	goto	u3501
   880  02EF  2AF1               	goto	u3500
   881  02F0                     u3501:
   882  02F0  2AFB               	goto	l3470
   883  02F1                     u3500:
   884                           	
   885  02F1                     l3468:	
   886  02F1  01F0               	clrf	(?_uart_write)
   887  02F2  1403               	bsf	status,0
   888  02F3  0DF0               	rlf	(?_uart_write),f
   889  02F4  3001               	movlw	(01h)
   890  02F5  120A  118A  25D0   	fcall	_uart_write
              120A  118A         
   891  02FA  2A3A               	goto	l3432
   892                           	line	128
   893                           	
   894  02FB                     l537:	
   895                           	
   896  02FB                     l3470:	
   897                           ;Slave_Programmed UART_1.c: 128: else uart_write(1,0);
   898  02FB  1003               	clrc
   899  02FC  3000               	movlw	0
   900  02FD  1803               	btfsc	status,0
   901  02FE  3001               	movlw	1
   902  02FF  00F0               	movwf	(?_uart_write)
   903  0300  3001               	movlw	(01h)
   904  0301  120A  118A  25D0   	fcall	_uart_write
              120A  118A         
   905  0306  2A3A               	goto	l3432
   906                           	
   907  0307                     l538:	
   908                           	line	129
   909                           ;Slave_Programmed UART_1.c: 129: break;
   910  0307  2A3A               	goto	l3432
   911                           	line	130
   912                           	
   913  0308                     l3472:	
   914                           ;Slave_Programmed UART_1.c: 130: }
   915  0308  2A3A               	goto	l3432
   916                           	line	113
   917                           	
   918  0309                     l528:	
   919                           	
   920  0309                     l3474:	
   921  0309  087C               	movf	(main@data_to_read),w
   922                           	; Switch size 1, requested type "space"
   923                           ; Number of cases is 3, Range of values is 1 to 3
   924                           ; switch strategies available:
   925                           ; Name         Bytes Cycles
   926                           ; simple_byte    10     6 (average)
   927                           ; direct_byte    31    22 (fixed)
   928                           ;	Chosen strategy is simple_byte
   929                           
   930  030A  3A01               	xorlw	1^0	; case 1
   931  030B  1903               	skipnz
   932  030C  2AB1               	goto	l529
   933  030D  3A03               	xorlw	2^1	; case 2
   934  030E  1903               	skipnz
   935  030F  2ACE               	goto	l533
   936  0310  3A01               	xorlw	3^2	; case 3
   937  0311  1903               	skipnz
   938  0312  2AEB               	goto	l536
   939  0313  2A3A               	goto	l3432
   940                           
   941                           	line	130
   942                           	
   943  0314                     l532:	
   944                           	line	131
   945                           ;Slave_Programmed UART_1.c: 131: break;
   946  0314  2A3A               	goto	l3432
   947                           	line	133
   948                           ;Slave_Programmed UART_1.c: 133: case 5:
   949                           	
   950  0315                     l539:	
   951                           	line	134
   952                           	
   953  0315                     l3476:	
   954                           ;Slave_Programmed UART_1.c: 134: data_to_read=uart_read(1);
   955  0315  3001               	movlw	(01h)
   956  0316  120A  118A  23AB   	fcall	_uart_read
              120A  118A         
   957  031B  00FB               	movwf	(??_main+0)+0
   958  031C  087B               	movf	(??_main+0)+0,w
   959  031D  00FC               	movwf	(main@data_to_read)
   960                           	line	135
   961                           	
   962  031E                     l3478:	
   963                           ;Slave_Programmed UART_1.c: 135: lcd_clr();
   964  031E  120A  118A  2082   	fcall	_lcd_clr
              120A  118A         
   965                           	line	136
   966                           	
   967  0323                     l3480:	
   968                           ;Slave_Programmed UART_1.c: 136: k=0;
   969  0323  3000               	movlw	low(0)
   970  0324  1283               	bcf	status, 5	;RP0=0, select bank0
   971  0325  1303               	bcf	status, 6	;RP1=0, select bank0
   972  0326  00A0               	movwf	(_k)
   973  0327  3000               	movlw	high(0)
   974  0328  00A1               	movwf	((_k))+1
   975                           	line	137
   976                           	
   977  0329                     l3482:	
   978                           ;Slave_Programmed UART_1.c: 137: m=0;
   979  0329  3000               	movlw	low(0)
   980  032A  00A2               	movwf	(_m)
   981  032B  3000               	movlw	high(0)
   982  032C  00A3               	movwf	((_m))+1
   983                           	line	138
   984                           	
   985  032D                     l3484:	
   986                           ;Slave_Programmed UART_1.c: 138: uart_write(1,'a');
   987  032D  3061               	movlw	(061h)
   988  032E  00FB               	movwf	(??_main+0)+0
   989  032F  087B               	movf	(??_main+0)+0,w
   990  0330  00F0               	movwf	(?_uart_write)
   991  0331  3001               	movlw	(01h)
   992  0332  120A  118A  25D0   	fcall	_uart_write
              120A  118A         
   993                           	line	139
   994                           ;Slave_Programmed UART_1.c: 139: break;
   995  0337  2A3A               	goto	l3432
   996                           	line	141
   997                           ;Slave_Programmed UART_1.c: 141: case 6:
   998                           	
   999  0338                     l540:	
  1000                           	line	142
  1001                           	
  1002  0338                     l3486:	
  1003                           ;Slave_Programmed UART_1.c: 142: data_to_read=uart_read(1);
  1004  0338  3001               	movlw	(01h)
  1005  0339  120A  118A  23AB   	fcall	_uart_read
              120A  118A         
  1006  033E  00FB               	movwf	(??_main+0)+0
  1007  033F  087B               	movf	(??_main+0)+0,w
  1008  0340  00FC               	movwf	(main@data_to_read)
  1009                           	line	143
  1010                           	
  1011  0341                     l3488:	
  1012                           ;Slave_Programmed UART_1.c: 143: if (k>15)
  1013  0341  1283               	bcf	status, 5	;RP0=0, select bank0
  1014  0342  1303               	bcf	status, 6	;RP1=0, select bank0
  1015  0343  0821               	movf	(_k+1),w
  1016  0344  3A80               	xorlw	80h
  1017  0345  00FF               	movwf	btemp+1
  1018  0346  3080               	movlw	(high(010h))^80h
  1019  0347  027F               	subwf	btemp+1,w
  1020  0348  1D03               	skipz
  1021  0349  2B4C               	goto	u3515
  1022  034A  3010               	movlw	low(010h)
  1023  034B  0220               	subwf	(_k),w
  1024  034C                     u3515:
  1025                           
  1026  034C  1C03               	skipc
  1027  034D  2B4F               	goto	u3511
  1028  034E  2B50               	goto	u3510
  1029  034F                     u3511:
  1030  034F  2B6E               	goto	l3496
  1031  0350                     u3510:
  1032                           	line	144
  1033                           	
  1034  0350                     l3490:	
  1035                           ;Slave_Programmed UART_1.c: 144: {send_config(0xc0+m);
  1036  0350  1283               	bcf	status, 5	;RP0=0, select bank0
  1037  0351  1303               	bcf	status, 6	;RP1=0, select bank0
  1038  0352  0822               	movf	(_m),w
  1039  0353  3EC0               	addlw	0C0h
  1040  0354  120A  118A  20B3   	fcall	_send_config
              120A  118A         
  1041                           	line	145
  1042                           ;Slave_Programmed UART_1.c: 145: send_char(data_to_read);
  1043  0359  087C               	movf	(main@data_to_read),w
  1044  035A  120A  118A  20D8   	fcall	_send_char
              120A  118A         
  1045                           	line	146
  1046                           	
  1047  035F                     l3492:	
  1048                           ;Slave_Programmed UART_1.c: 146: m++;
  1049  035F  3001               	movlw	low(01h)
  1050  0360  1283               	bcf	status, 5	;RP0=0, select bank0
  1051  0361  1303               	bcf	status, 6	;RP1=0, select bank0
  1052  0362  07A2               	addwf	(_m),f
  1053  0363  1803               	skipnc
  1054  0364  0AA3               	incf	(_m+1),f
  1055  0365  3000               	movlw	high(01h)
  1056  0366  07A3               	addwf	(_m+1),f
  1057                           	line	147
  1058                           	
  1059  0367                     l3494:	
  1060                           ;Slave_Programmed UART_1.c: 147: k++;
  1061  0367  3001               	movlw	low(01h)
  1062  0368  07A0               	addwf	(_k),f
  1063  0369  1803               	skipnc
  1064  036A  0AA1               	incf	(_k+1),f
  1065  036B  3000               	movlw	high(01h)
  1066  036C  07A1               	addwf	(_k+1),f
  1067                           	line	148
  1068                           ;Slave_Programmed UART_1.c: 148: }
  1069  036D  2B86               	goto	l3500
  1070                           	line	149
  1071                           	
  1072  036E                     l541:	
  1073                           	line	150
  1074                           	
  1075  036E                     l3496:	
  1076                           ;Slave_Programmed UART_1.c: 149: else
  1077                           ;Slave_Programmed UART_1.c: 150: {send_config(0x80+k);
  1078  036E  1283               	bcf	status, 5	;RP0=0, select bank0
  1079  036F  1303               	bcf	status, 6	;RP1=0, select bank0
  1080  0370  0820               	movf	(_k),w
  1081  0371  3E80               	addlw	080h
  1082  0372  120A  118A  20B3   	fcall	_send_config
              120A  118A         
  1083                           	line	151
  1084                           ;Slave_Programmed UART_1.c: 151: send_char(data_to_read);
  1085  0377  087C               	movf	(main@data_to_read),w
  1086  0378  120A  118A  20D8   	fcall	_send_char
              120A  118A         
  1087                           	line	152
  1088                           	
  1089  037D                     l3498:	
  1090                           ;Slave_Programmed UART_1.c: 152: k++;
  1091  037D  3001               	movlw	low(01h)
  1092  037E  1283               	bcf	status, 5	;RP0=0, select bank0
  1093  037F  1303               	bcf	status, 6	;RP1=0, select bank0
  1094  0380  07A0               	addwf	(_k),f
  1095  0381  1803               	skipnc
  1096  0382  0AA1               	incf	(_k+1),f
  1097  0383  3000               	movlw	high(01h)
  1098  0384  07A1               	addwf	(_k+1),f
  1099  0385  2B86               	goto	l3500
  1100                           	line	153
  1101                           	
  1102  0386                     l542:	
  1103                           	line	154
  1104                           	
  1105  0386                     l3500:	
  1106                           ;Slave_Programmed UART_1.c: 153: }
  1107                           ;Slave_Programmed UART_1.c: 154: uart_write(1,'a');
  1108  0386  3061               	movlw	(061h)
  1109  0387  00FB               	movwf	(??_main+0)+0
  1110  0388  087B               	movf	(??_main+0)+0,w
  1111  0389  00F0               	movwf	(?_uart_write)
  1112  038A  3001               	movlw	(01h)
  1113  038B  120A  118A  25D0   	fcall	_uart_write
              120A  118A         
  1114                           	line	155
  1115                           ;Slave_Programmed UART_1.c: 155: break;
  1116  0390  2A3A               	goto	l3432
  1117                           	line	156
  1118                           	
  1119  0391                     l3502:	
  1120                           ;Slave_Programmed UART_1.c: 156: }
  1121  0391  2A3A               	goto	l3432
  1122                           	line	88
  1123                           	
  1124  0392                     l516:	
  1125                           	
  1126  0392                     l3504:	
  1127  0392  087C               	movf	(main@data_to_read),w
  1128                           	; Switch size 1, requested type "space"
  1129                           ; Number of cases is 6, Range of values is 1 to 6
  1130                           ; switch strategies available:
  1131                           ; Name         Bytes Cycles
  1132                           ; simple_byte    19    10 (average)
  1133                           ; direct_byte    40    22 (fixed)
  1134                           ;	Chosen strategy is simple_byte
  1135                           
  1136  0393  3A01               	xorlw	1^0	; case 1
  1137  0394  1903               	skipnz
  1138  0395  2A44               	goto	l3434
  1139  0396  3A03               	xorlw	2^1	; case 2
  1140  0397  1903               	skipnz
  1141  0398  2A65               	goto	l3442
  1142  0399  3A01               	xorlw	3^2	; case 3
  1143  039A  1903               	skipnz
  1144  039B  2A86               	goto	l3450
  1145  039C  3A07               	xorlw	4^3	; case 4
  1146  039D  1903               	skipnz
  1147  039E  2AA7               	goto	l3458
  1148  039F  3A01               	xorlw	5^4	; case 5
  1149  03A0  1903               	skipnz
  1150  03A1  2B15               	goto	l3476
  1151  03A2  3A03               	xorlw	6^5	; case 6
  1152  03A3  1903               	skipnz
  1153  03A4  2B38               	goto	l3486
  1154  03A5  2A3A               	goto	l3432
  1155                           
  1156                           	line	156
  1157                           	
  1158  03A6                     l520:	
  1159  03A6  2A3A               	goto	l3432
  1160                           	line	157
  1161                           	
  1162  03A7                     l543:	
  1163                           	line	84
  1164  03A7  2A3A               	goto	l3432
  1165                           	
  1166  03A8                     l544:	
  1167                           	line	158
  1168                           	
  1169  03A8                     l545:	
  1170                           	global	start
  1171  03A8  120A  118A  2800   	ljmp	start
  1172                           	opt stack 0
  1173                           GLOBAL	__end_of_main
  1174  03AB                     	__end_of_main:
  1175 ;; =============== function _main ends ============
  1176                           
  1177                           	signat	_main,88
  1178                           	global	_send_string
  1179                           psect	text229,local,class=CODE,delta=2
  1180                           global __ptext229
  1181  00FD                     __ptext229:
  1182                           
  1183 ;; *************** function _send_string *****************
  1184 ;; Defined at:
  1185 ;;		line 193 in file "C:\Users\Phang\Desktop\9.80\PR 27\Slave_Programmed UART_1\Slave_Programmed UART_1.c"
  1186 ;; Parameters:    Size  Location     Type
  1187 ;;  s               1    wreg     PTR const unsigned char 
  1188 ;;		 -> STR_2(13), STR_1(12), 
  1189 ;; Auto vars:     Size  Location     Type
  1190 ;;  s               1   10[COMMON] PTR const unsigned char 
  1191 ;;		 -> STR_2(13), STR_1(12), 
  1192 ;; Return value:  Size  Location     Type
  1193 ;;		None               void
  1194 ;; Registers used:
  1195 ;;		wreg, fsr0l, fsr0h, status,2, status,0, pclath, cstack
  1196 ;; Tracked objects:
  1197 ;;		On entry : 0/0
  1198 ;;		On exit  : 0/0
  1199 ;;		Unchanged: 0/0
  1200 ;; Data sizes:     COMMON   BANK0   BANK1   BANK3   BANK2
  1201 ;;      Params:         0       0       0       0       0
  1202 ;;      Locals:         1       0       0       0       0
  1203 ;;      Temps:          1       0       0       0       0
  1204 ;;      Totals:         2       0       0       0       0
  1205 ;;Total ram usage:        2 bytes
  1206 ;; Hardware stack levels used:    1
  1207 ;; Hardware stack levels required when called:    2
  1208 ;; This function calls:
  1209 ;;		_send_char
  1210 ;; This function is called by:
  1211 ;;		_main
  1212 ;; This function uses a non-reentrant model
  1213 ;;
  1214                           psect	text229
  1215                           	file	"C:\Users\Phang\Desktop\9.80\PR 27\Slave_Programmed UART_1\Slave_Programmed UART_1
                                 .c"
  1216                           	line	193
  1217                           	global	__size_of_send_string
  1218  0026                     	__size_of_send_string	equ	__end_of_send_string-_send_string
  1219                           	
  1220  00FD                     _send_string:	
  1221                           	opt	stack 5
  1222                           ; Regs used in _send_string: [wreg-fsr0h+status,2+status,0+pclath+cstack]
  1223                           ;send_string@s stored from wreg
  1224  00FD  00FA               	movwf	(send_string@s)
  1225                           	line	194
  1226                           	
  1227  00FE                     l3382:	
  1228                           ;Slave_Programmed UART_1.c: 194: while (s && *s)send_char (*s++);
  1229  00FE  2910               	goto	l3388
  1230                           	
  1231  00FF                     l563:	
  1232                           	
  1233  00FF                     l3384:	
  1234  00FF  087A               	movf	(send_string@s),w
  1235  0100  0084               	movwf	fsr0
  1236  0101  120A  118A  2003   	fcall	stringdir
              120A  118A         
  1237  0106  120A  118A  20D8   	fcall	_send_char
              120A  118A         
  1238                           	
  1239  010B                     l3386:	
  1240  010B  3001               	movlw	(01h)
  1241  010C  00F9               	movwf	(??_send_string+0)+0
  1242  010D  0879               	movf	(??_send_string+0)+0,w
  1243  010E  07FA               	addwf	(send_string@s),f
  1244  010F  2910               	goto	l3388
  1245                           	
  1246  0110                     l562:	
  1247                           	
  1248  0110                     l3388:	
  1249  0110  087A               	movf	(send_string@s),w
  1250  0111  1D03               	skipz
  1251  0112  2914               	goto	u3430
  1252  0113  2922               	goto	l567
  1253  0114                     u3430:
  1254                           	
  1255  0114                     l3390:	
  1256  0114  087A               	movf	(send_string@s),w
  1257  0115  0084               	movwf	fsr0
  1258  0116  120A  118A  2003   	fcall	stringdir
              120A  118A         
  1259  011B  3800               	iorlw	0
  1260  011C  1D03               	skipz
  1261  011D  291F               	goto	u3441
  1262  011E  2920               	goto	u3440
  1263  011F                     u3441:
  1264  011F  28FF               	goto	l3384
  1265  0120                     u3440:
  1266  0120  2922               	goto	l567
  1267                           	
  1268  0121                     l565:	
  1269  0121  2922               	goto	l567
  1270                           	
  1271  0122                     l566:	
  1272                           	line	195
  1273                           	
  1274  0122                     l567:	
  1275  0122  0008               	return
  1276                           	opt stack 0
  1277                           GLOBAL	__end_of_send_string
  1278  0123                     	__end_of_send_string:
  1279 ;; =============== function _send_string ends ============
  1280                           
  1281                           	signat	_send_string,4216
  1282                           	global	_lcd_goto
  1283                           psect	text230,local,class=CODE,delta=2
  1284                           global __ptext230
  1285  0096                     __ptext230:
  1286                           
  1287 ;; *************** function _lcd_goto *****************
  1288 ;; Defined at:
  1289 ;;		line 198 in file "C:\Users\Phang\Desktop\9.80\PR 27\Slave_Programmed UART_1\Slave_Programmed UART_1.c"
  1290 ;; Parameters:    Size  Location     Type
  1291 ;;  data            1    wreg     unsigned char 
  1292 ;; Auto vars:     Size  Location     Type
  1293 ;;  data            1   10[COMMON] unsigned char 
  1294 ;; Return value:  Size  Location     Type
  1295 ;;		None               void
  1296 ;; Registers used:
  1297 ;;		wreg, status,2, status,0, pclath, cstack
  1298 ;; Tracked objects:
  1299 ;;		On entry : 0/0
  1300 ;;		On exit  : 0/0
  1301 ;;		Unchanged: 0/0
  1302 ;; Data sizes:     COMMON   BANK0   BANK1   BANK3   BANK2
  1303 ;;      Params:         0       0       0       0       0
  1304 ;;      Locals:         1       0       0       0       0
  1305 ;;      Temps:          1       0       0       0       0
  1306 ;;      Totals:         2       0       0       0       0
  1307 ;;Total ram usage:        2 bytes
  1308 ;; Hardware stack levels used:    1
  1309 ;; Hardware stack levels required when called:    2
  1310 ;; This function calls:
  1311 ;;		_send_config
  1312 ;; This function is called by:
  1313 ;;		_main
  1314 ;; This function uses a non-reentrant model
  1315 ;;
  1316                           psect	text230
  1317                           	file	"C:\Users\Phang\Desktop\9.80\PR 27\Slave_Programmed UART_1\Slave_Programmed UART_1
                                 .c"
  1318                           	line	198
  1319                           	global	__size_of_lcd_goto
  1320  001D                     	__size_of_lcd_goto	equ	__end_of_lcd_goto-_lcd_goto
  1321                           	
  1322  0096                     _lcd_goto:	
  1323                           	opt	stack 5
  1324                           ; Regs used in _lcd_goto: [wreg+status,2+status,0+pclath+cstack]
  1325                           ;lcd_goto@data stored from wreg
  1326  0096  00FA               	movwf	(lcd_goto@data)
  1327                           	line	199
  1328                           	
  1329  0097                     l3374:	
  1330                           ;Slave_Programmed UART_1.c: 199: if(data<16)
  1331  0097  3010               	movlw	(010h)
  1332  0098  027A               	subwf	(lcd_goto@data),w
  1333  0099  1803               	skipnc
  1334  009A  289C               	goto	u3421
  1335  009B  289D               	goto	u3420
  1336  009C                     u3421:
  1337  009C  28A5               	goto	l3378
  1338  009D                     u3420:
  1339                           	line	201
  1340                           	
  1341  009D                     l3376:	
  1342                           ;Slave_Programmed UART_1.c: 200: {
  1343                           ;Slave_Programmed UART_1.c: 201: send_config(0x80+data);
  1344  009D  087A               	movf	(lcd_goto@data),w
  1345  009E  3E80               	addlw	080h
  1346  009F  120A  118A  20B3   	fcall	_send_config
              120A  118A         
  1347                           	line	202
  1348                           ;Slave_Programmed UART_1.c: 202: }
  1349  00A4  28B2               	goto	l572
  1350                           	line	203
  1351                           	
  1352  00A5                     l570:	
  1353                           	line	205
  1354                           	
  1355  00A5                     l3378:	
  1356                           ;Slave_Programmed UART_1.c: 203: else
  1357                           ;Slave_Programmed UART_1.c: 204: {
  1358                           ;Slave_Programmed UART_1.c: 205: data=data-20;
  1359  00A5  087A               	movf	(lcd_goto@data),w
  1360  00A6  3EEC               	addlw	0ECh
  1361  00A7  00F9               	movwf	(??_lcd_goto+0)+0
  1362  00A8  0879               	movf	(??_lcd_goto+0)+0,w
  1363  00A9  00FA               	movwf	(lcd_goto@data)
  1364                           	line	206
  1365                           	
  1366  00AA                     l3380:	
  1367                           ;Slave_Programmed UART_1.c: 206: send_config(0xc0+data);
  1368  00AA  087A               	movf	(lcd_goto@data),w
  1369  00AB  3EC0               	addlw	0C0h
  1370  00AC  120A  118A  20B3   	fcall	_send_config
              120A  118A         
  1371  00B1  28B2               	goto	l572
  1372                           	line	207
  1373                           	
  1374  00B2                     l571:	
  1375                           	line	208
  1376                           	
  1377  00B2                     l572:	
  1378  00B2  0008               	return
  1379                           	opt stack 0
  1380                           GLOBAL	__end_of_lcd_goto
  1381  00B3                     	__end_of_lcd_goto:
  1382 ;; =============== function _lcd_goto ends ============
  1383                           
  1384                           	signat	_lcd_goto,4216
  1385                           	global	_lcd_clr
  1386                           psect	text231,local,class=CODE,delta=2
  1387                           global __ptext231
  1388  0082                     __ptext231:
  1389                           
  1390 ;; *************** function _lcd_clr *****************
  1391 ;; Defined at:
  1392 ;;		line 187 in file "C:\Users\Phang\Desktop\9.80\PR 27\Slave_Programmed UART_1\Slave_Programmed UART_1.c"
  1393 ;; Parameters:    Size  Location     Type
  1394 ;;		None
  1395 ;; Auto vars:     Size  Location     Type
  1396 ;;		None
  1397 ;; Return value:  Size  Location     Type
  1398 ;;		None               void
  1399 ;; Registers used:
  1400 ;;		wreg, status,2, status,0, pclath, cstack
  1401 ;; Tracked objects:
  1402 ;;		On entry : 0/0
  1403 ;;		On exit  : 0/0
  1404 ;;		Unchanged: 0/0
  1405 ;; Data sizes:     COMMON   BANK0   BANK1   BANK3   BANK2
  1406 ;;      Params:         0       0       0       0       0
  1407 ;;      Locals:         0       0       0       0       0
  1408 ;;      Temps:          0       0       0       0       0
  1409 ;;      Totals:         0       0       0       0       0
  1410 ;;Total ram usage:        0 bytes
  1411 ;; Hardware stack levels used:    1
  1412 ;; Hardware stack levels required when called:    2
  1413 ;; This function calls:
  1414 ;;		_send_config
  1415 ;;		_delay
  1416 ;; This function is called by:
  1417 ;;		_main
  1418 ;; This function uses a non-reentrant model
  1419 ;;
  1420                           psect	text231
  1421                           	file	"C:\Users\Phang\Desktop\9.80\PR 27\Slave_Programmed UART_1\Slave_Programmed UART_1
                                 .c"
  1422                           	line	187
  1423                           	global	__size_of_lcd_clr
  1424  0014                     	__size_of_lcd_clr	equ	__end_of_lcd_clr-_lcd_clr
  1425                           	
  1426  0082                     _lcd_clr:	
  1427                           	opt	stack 5
  1428                           ; Regs used in _lcd_clr: [wreg+status,2+status,0+pclath+cstack]
  1429                           	line	188
  1430                           	
  1431  0082                     l3372:	
  1432                           ;Slave_Programmed UART_1.c: 188: send_config(0x01);
  1433  0082  3001               	movlw	(01h)
  1434  0083  120A  118A  20B3   	fcall	_send_config
              120A  118A         
  1435                           	line	189
  1436                           ;Slave_Programmed UART_1.c: 189: delay(600);
  1437  0088  3000               	movlw	0
  1438  0089  00F3               	movwf	(?_delay+3)
  1439  008A  3000               	movlw	0
  1440  008B  00F2               	movwf	(?_delay+2)
  1441  008C  3002               	movlw	02h
  1442  008D  00F1               	movwf	(?_delay+1)
  1443  008E  3058               	movlw	058h
  1444  008F  00F0               	movwf	(?_delay)
  1445                           
  1446  0090  120A  118A  2123   	fcall	_delay
              120A  118A         
  1447                           	line	190
  1448                           	
  1449  0095                     l559:	
  1450  0095  0008               	return
  1451                           	opt stack 0
  1452                           GLOBAL	__end_of_lcd_clr
  1453  0096                     	__end_of_lcd_clr:
  1454 ;; =============== function _lcd_clr ends ============
  1455                           
  1456                           	signat	_lcd_clr,88
  1457                           	global	_send_char
  1458                           psect	text232,local,class=CODE,delta=2
  1459                           global __ptext232
  1460  00D8                     __ptext232:
  1461                           
  1462 ;; *************** function _send_char *****************
  1463 ;; Defined at:
  1464 ;;		line 177 in file "C:\Users\Phang\Desktop\9.80\PR 27\Slave_Programmed UART_1\Slave_Programmed UART_1.c"
  1465 ;; Parameters:    Size  Location     Type
  1466 ;;  data            1    wreg     unsigned char 
  1467 ;; Auto vars:     Size  Location     Type
  1468 ;;  data            1    8[COMMON] unsigned char 
  1469 ;; Return value:  Size  Location     Type
  1470 ;;		None               void
  1471 ;; Registers used:
  1472 ;;		wreg, status,2, status,0, pclath, cstack
  1473 ;; Tracked objects:
  1474 ;;		On entry : 0/0
  1475 ;;		On exit  : 0/0
  1476 ;;		Unchanged: 0/0
  1477 ;; Data sizes:     COMMON   BANK0   BANK1   BANK3   BANK2
  1478 ;;      Params:         0       0       0       0       0
  1479 ;;      Locals:         1       0       0       0       0
  1480 ;;      Temps:          0       0       0       0       0
  1481 ;;      Totals:         1       0       0       0       0
  1482 ;;Total ram usage:        1 bytes
  1483 ;; Hardware stack levels used:    1
  1484 ;; Hardware stack levels required when called:    1
  1485 ;; This function calls:
  1486 ;;		_delay
  1487 ;; This function is called by:
  1488 ;;		_main
  1489 ;;		_send_string
  1490 ;; This function uses a non-reentrant model
  1491 ;;
  1492                           psect	text232
  1493                           	file	"C:\Users\Phang\Desktop\9.80\PR 27\Slave_Programmed UART_1\Slave_Programmed UART_1
                                 .c"
  1494                           	line	177
  1495                           	global	__size_of_send_char
  1496  0025                     	__size_of_send_char	equ	__end_of_send_char-_send_char
  1497                           	
  1498  00D8                     _send_char:	
  1499                           	opt	stack 6
  1500                           ; Regs used in _send_char: [wreg+status,2+status,0+pclath+cstack]
  1501                           ;send_char@data stored from wreg
  1502  00D8  00F8               	movwf	(send_char@data)
  1503                           	line	178
  1504                           	
  1505  00D9                     l3360:	
  1506                           ;Slave_Programmed UART_1.c: 178: RC4=1;
  1507  00D9  1283               	bcf	status, 5	;RP0=0, select bank0
  1508  00DA  1303               	bcf	status, 6	;RP1=0, select bank0
  1509  00DB  1607               	bsf	(60/8),(60)&7
  1510                           	line	179
  1511                           	
  1512  00DC                     l3362:	
  1513                           ;Slave_Programmed UART_1.c: 179: PORTB=data;
  1514  00DC  0878               	movf	(send_char@data),w
  1515  00DD  0086               	movwf	(6)	;volatile
  1516                           	line	180
  1517                           	
  1518  00DE                     l3364:	
  1519                           ;Slave_Programmed UART_1.c: 180: RC5=1;
  1520  00DE  1687               	bsf	(61/8),(61)&7
  1521                           	line	181
  1522                           	
  1523  00DF                     l3366:	
  1524                           ;Slave_Programmed UART_1.c: 181: delay(50);
  1525  00DF  3000               	movlw	0
  1526  00E0  00F3               	movwf	(?_delay+3)
  1527  00E1  3000               	movlw	0
  1528  00E2  00F2               	movwf	(?_delay+2)
  1529  00E3  3000               	movlw	0
  1530  00E4  00F1               	movwf	(?_delay+1)
  1531  00E5  3032               	movlw	032h
  1532  00E6  00F0               	movwf	(?_delay)
  1533                           
  1534  00E7  120A  118A  2123   	fcall	_delay
              120A  118A         
  1535                           	line	182
  1536                           	
  1537  00EC                     l3368:	
  1538                           ;Slave_Programmed UART_1.c: 182: RC5=0;
  1539  00EC  1283               	bcf	status, 5	;RP0=0, select bank0
  1540  00ED  1303               	bcf	status, 6	;RP1=0, select bank0
  1541  00EE  1287               	bcf	(61/8),(61)&7
  1542                           	line	183
  1543                           	
  1544  00EF                     l3370:	
  1545                           ;Slave_Programmed UART_1.c: 183: delay(50);
  1546  00EF  3000               	movlw	0
  1547  00F0  00F3               	movwf	(?_delay+3)
  1548  00F1  3000               	movlw	0
  1549  00F2  00F2               	movwf	(?_delay+2)
  1550  00F3  3000               	movlw	0
  1551  00F4  00F1               	movwf	(?_delay+1)
  1552  00F5  3032               	movlw	032h
  1553  00F6  00F0               	movwf	(?_delay)
  1554                           
  1555  00F7  120A  118A  2123   	fcall	_delay
              120A  118A         
  1556                           	line	184
  1557                           	
  1558  00FC                     l556:	
  1559  00FC  0008               	return
  1560                           	opt stack 0
  1561                           GLOBAL	__end_of_send_char
  1562  00FD                     	__end_of_send_char:
  1563 ;; =============== function _send_char ends ============
  1564                           
  1565                           	signat	_send_char,4216
  1566                           	global	_uart_write
  1567                           psect	text233,local,class=CODE,delta=2
  1568                           global __ptext233
  1569  05D0                     __ptext233:
  1570                           
  1571 ;; *************** function _uart_write *****************
  1572 ;; Defined at:
  1573 ;;		line 212 in file "C:\Users\Phang\Desktop\9.80\PR 27\Slave_Programmed UART_1\uart_io.c"
  1574 ;; Parameters:    Size  Location     Type
  1575 ;;  channel         1    wreg     unsigned char 
  1576 ;;  data            1    0[COMMON] unsigned char 
  1577 ;; Auto vars:     Size  Location     Type
  1578 ;;  channel         1    3[COMMON] unsigned char 
  1579 ;;  i               1    4[COMMON] unsigned char 
  1580 ;; Return value:  Size  Location     Type
  1581 ;;		None               void
  1582 ;; Registers used:
  1583 ;;		wreg, fsr0l, fsr0h, status,2, status,0
  1584 ;; Tracked objects:
  1585 ;;		On entry : 0/0
  1586 ;;		On exit  : 0/0
  1587 ;;		Unchanged: 0/0
  1588 ;; Data sizes:     COMMON   BANK0   BANK1   BANK3   BANK2
  1589 ;;      Params:         1       0       0       0       0
  1590 ;;      Locals:         2       0       0       0       0
  1591 ;;      Temps:          2       0       0       0       0
  1592 ;;      Totals:         5       0       0       0       0
  1593 ;;Total ram usage:        5 bytes
  1594 ;; Hardware stack levels used:    1
  1595 ;; This function calls:
  1596 ;;		Nothing
  1597 ;; This function is called by:
  1598 ;;		_main
  1599 ;; This function uses a non-reentrant model
  1600 ;;
  1601                           psect	text233
  1602                           	file	"C:\Users\Phang\Desktop\9.80\PR 27\Slave_Programmed UART_1\uart_io.c"
  1603                           	line	212
  1604                           	global	__size_of_uart_write
  1605  0230                     	__size_of_uart_write	equ	__end_of_uart_write-_uart_write
  1606                           	
  1607  05D0                     _uart_write:	
  1608                           	opt	stack 7
  1609                           ; Regs used in _uart_write: [wreg-fsr0h+status,2+status,0]
  1610                           ;uart_write@channel stored from wreg
  1611  05D0  00F3               	movwf	(uart_write@channel)
  1612                           	line	215
  1613                           	
  1614  05D1                     l3166:	
  1615                           ;uart_io.c: 213: unsigned char i;
  1616                           ;uart_io.c: 215: switch(channel)
  1617  05D1  2FE5               	goto	l3358
  1618                           	line	217
  1619                           ;uart_io.c: 216: {
  1620                           ;uart_io.c: 217: case 1:
  1621                           	
  1622  05D2                     l1085:	
  1623                           	line	218
  1624                           ;uart_io.c: 218: RC2=0;
  1625  05D2  1283               	bcf	status, 5	;RP0=0, select bank0
  1626  05D3  1303               	bcf	status, 6	;RP1=0, select bank0
  1627  05D4  1107               	bcf	(58/8),(58)&7
  1628                           	line	219
  1629                           	
  1630  05D5                     l3168:	
  1631                           ;uart_io.c: 219: _delay((20000000/4)/9600-15);
  1632                           	opt asmopt_off
  1633  05D5  30A8               movlw	168
  1634  05D6  00F1               movwf	(??_uart_write+0)+0,f
  1635  05D7                     u3527:
  1636  05D7  0BF1               decfsz	(??_uart_write+0)+0,f
  1637  05D8  2DD7               	goto	u3527
  1638                           opt asmopt_on
  1639                           
  1640                           	line	220
  1641                           	
  1642  05D9                     l3170:	
  1643                           ;uart_io.c: 220: for(i=1;i>0;i=i<<1)
  1644  05D9  01F4               	clrf	(uart_write@i)
  1645  05DA  1403               	bsf	status,0
  1646  05DB  0DF4               	rlf	(uart_write@i),f
  1647                           	
  1648  05DC                     l3172:	
  1649  05DC  08F4               	movf	(uart_write@i),f
  1650  05DD  1D03               	skipz
  1651  05DE  2DE0               	goto	u3181
  1652  05DF  2DE1               	goto	u3180
  1653  05E0                     u3181:
  1654  05E0  2DE3               	goto	l3176
  1655  05E1                     u3180:
  1656  05E1  2E06               	goto	l3186
  1657                           	
  1658  05E2                     l3174:	
  1659  05E2  2E06               	goto	l3186
  1660                           	line	221
  1661                           	
  1662  05E3                     l1086:	
  1663                           	line	222
  1664                           	
  1665  05E3                     l3176:	
  1666                           ;uart_io.c: 221: {
  1667                           ;uart_io.c: 222: if((data&i)==0)
  1668  05E3  0870               	movf	(uart_write@data),w
  1669  05E4  0574               	andwf	(uart_write@i),w
  1670  05E5  1D03               	btfss	status,2
  1671  05E6  2DE8               	goto	u3191
  1672  05E7  2DE9               	goto	u3190
  1673  05E8                     u3191:
  1674  05E8  2DF1               	goto	l1088
  1675  05E9                     u3190:
  1676                           	line	224
  1677                           	
  1678  05E9                     l3178:	
  1679                           ;uart_io.c: 223: {
  1680                           ;uart_io.c: 224: RC2=0;
  1681  05E9  1283               	bcf	status, 5	;RP0=0, select bank0
  1682  05EA  1303               	bcf	status, 6	;RP1=0, select bank0
  1683  05EB  1107               	bcf	(58/8),(58)&7
  1684                           	line	225
  1685                           	
  1686  05EC                     l3180:	
  1687                           ;uart_io.c: 225: _delay((20000000/4)/9600-21);
  1688                           	opt asmopt_off
  1689  05EC  30A6               movlw	166
  1690  05ED  00F1               movwf	(??_uart_write+0)+0,f
  1691  05EE                     u3537:
  1692  05EE  0BF1               decfsz	(??_uart_write+0)+0,f
  1693  05EF  2DEE               	goto	u3537
  1694                           opt asmopt_on
  1695                           
  1696                           	line	226
  1697                           ;uart_io.c: 226: }
  1698  05F0  2DFA               	goto	l3184
  1699                           	line	227
  1700                           	
  1701  05F1                     l1088:	
  1702                           	line	229
  1703                           ;uart_io.c: 227: else
  1704                           ;uart_io.c: 228: {
  1705                           ;uart_io.c: 229: RC2=1;
  1706  05F1  1283               	bcf	status, 5	;RP0=0, select bank0
  1707  05F2  1303               	bcf	status, 6	;RP1=0, select bank0
  1708  05F3  1507               	bsf	(58/8),(58)&7
  1709                           	line	230
  1710                           	
  1711  05F4                     l3182:	
  1712                           ;uart_io.c: 230: _delay((20000000/4)/9600-20);
  1713                           	opt asmopt_off
  1714  05F4  30A6               movlw	166
  1715  05F5  00F1               movwf	(??_uart_write+0)+0,f
  1716  05F6                     u3547:
  1717  05F6  0BF1               decfsz	(??_uart_write+0)+0,f
  1718  05F7  2DF6               	goto	u3547
  1719  05F8  0064               	clrwdt
  1720                           opt asmopt_on
  1721                           
  1722  05F9  2DFA               	goto	l3184
  1723                           	line	231
  1724                           	
  1725  05FA                     l1089:	
  1726                           	line	220
  1727                           	
  1728  05FA                     l3184:	
  1729  05FA  0874               	movf	(uart_write@i),w
  1730  05FB  00F1               	movwf	(??_uart_write+0)+0
  1731  05FC  0771               	addwf	(??_uart_write+0)+0,w
  1732  05FD  00F2               	movwf	(??_uart_write+1)+0
  1733  05FE  0872               	movf	(??_uart_write+1)+0,w
  1734  05FF  00F4               	movwf	(uart_write@i)
  1735  0600  08F4               	movf	(uart_write@i),f
  1736  0601  1D03               	skipz
  1737  0602  2E04               	goto	u3201
  1738  0603  2E05               	goto	u3200
  1739  0604                     u3201:
  1740  0604  2DE3               	goto	l3176
  1741  0605                     u3200:
  1742  0605  2E06               	goto	l3186
  1743                           	
  1744  0606                     l1087:	
  1745                           	line	233
  1746                           	
  1747  0606                     l3186:	
  1748                           ;uart_io.c: 231: }
  1749                           ;uart_io.c: 232: }
  1750                           ;uart_io.c: 233: _delay(8);
  1751                           		opt asmopt_off
  1752  0606  2E07               	nop2	;2 cycle nop
  1753                           	opt asmopt_on
  1754                           	opt asmopt_off
  1755  0607  2E08               	nop2	;2 cycle nop
  1756                           	opt asmopt_on
  1757                           	opt asmopt_off
  1758  0608  2E09               	nop2	;2 cycle nop
  1759                           	opt asmopt_on
  1760                           	opt asmopt_off
  1761  0609  2E0A               	nop2	;2 cycle nop
  1762                           	opt asmopt_on
  1763                           
  1764                           	line	234
  1765                           	
  1766  060A                     l3188:	
  1767                           ;uart_io.c: 234: RC2=1;
  1768  060A  1283               	bcf	status, 5	;RP0=0, select bank0
  1769  060B  1303               	bcf	status, 6	;RP1=0, select bank0
  1770  060C  1507               	bsf	(58/8),(58)&7
  1771                           	line	235
  1772                           ;uart_io.c: 235: _delay((20000000/4)/9600-3);
  1773                           	opt asmopt_off
  1774  060D  30AC               movlw	172
  1775  060E  00F1               movwf	(??_uart_write+0)+0,f
  1776  060F                     u3557:
  1777  060F  0BF1               decfsz	(??_uart_write+0)+0,f
  1778  0610  2E0F               	goto	u3557
  1779                           opt asmopt_on
  1780                           
  1781                           	line	236
  1782                           ;uart_io.c: 236: break;
  1783  0611  2FFF               	goto	l1126
  1784                           	line	238
  1785                           ;uart_io.c: 238: case 2:
  1786                           	
  1787  0612                     l1091:	
  1788                           	line	239
  1789                           ;uart_io.c: 239: RC0=0;
  1790  0612  1283               	bcf	status, 5	;RP0=0, select bank0
  1791  0613  1303               	bcf	status, 6	;RP1=0, select bank0
  1792  0614  1007               	bcf	(56/8),(56)&7
  1793                           	line	240
  1794                           	
  1795  0615                     l3190:	
  1796                           ;uart_io.c: 240: _delay((20000000/4)/9600-15);
  1797                           	opt asmopt_off
  1798  0615  30A8               movlw	168
  1799  0616  00F1               movwf	(??_uart_write+0)+0,f
  1800  0617                     u3567:
  1801  0617  0BF1               decfsz	(??_uart_write+0)+0,f
  1802  0618  2E17               	goto	u3567
  1803                           opt asmopt_on
  1804                           
  1805                           	line	241
  1806                           	
  1807  0619                     l3192:	
  1808                           ;uart_io.c: 241: for(i=1;i>0;i=i<<1)
  1809  0619  01F4               	clrf	(uart_write@i)
  1810  061A  1403               	bsf	status,0
  1811  061B  0DF4               	rlf	(uart_write@i),f
  1812                           	
  1813  061C                     l3194:	
  1814  061C  08F4               	movf	(uart_write@i),f
  1815  061D  1D03               	skipz
  1816  061E  2E20               	goto	u3211
  1817  061F  2E21               	goto	u3210
  1818  0620                     u3211:
  1819  0620  2E23               	goto	l3198
  1820  0621                     u3210:
  1821  0621  2E46               	goto	l3208
  1822                           	
  1823  0622                     l3196:	
  1824  0622  2E46               	goto	l3208
  1825                           	line	242
  1826                           	
  1827  0623                     l1092:	
  1828                           	line	243
  1829                           	
  1830  0623                     l3198:	
  1831                           ;uart_io.c: 242: {
  1832                           ;uart_io.c: 243: if((data&i)==0)
  1833  0623  0870               	movf	(uart_write@data),w
  1834  0624  0574               	andwf	(uart_write@i),w
  1835  0625  1D03               	btfss	status,2
  1836  0626  2E28               	goto	u3221
  1837  0627  2E29               	goto	u3220
  1838  0628                     u3221:
  1839  0628  2E31               	goto	l1094
  1840  0629                     u3220:
  1841                           	line	245
  1842                           	
  1843  0629                     l3200:	
  1844                           ;uart_io.c: 244: {
  1845                           ;uart_io.c: 245: RC0=0;
  1846  0629  1283               	bcf	status, 5	;RP0=0, select bank0
  1847  062A  1303               	bcf	status, 6	;RP1=0, select bank0
  1848  062B  1007               	bcf	(56/8),(56)&7
  1849                           	line	246
  1850                           	
  1851  062C                     l3202:	
  1852                           ;uart_io.c: 246: _delay((20000000/4)/9600-21);
  1853                           	opt asmopt_off
  1854  062C  30A6               movlw	166
  1855  062D  00F1               movwf	(??_uart_write+0)+0,f
  1856  062E                     u3577:
  1857  062E  0BF1               decfsz	(??_uart_write+0)+0,f
  1858  062F  2E2E               	goto	u3577
  1859                           opt asmopt_on
  1860                           
  1861                           	line	247
  1862                           ;uart_io.c: 247: }
  1863  0630  2E3A               	goto	l3206
  1864                           	line	248
  1865                           	
  1866  0631                     l1094:	
  1867                           	line	250
  1868                           ;uart_io.c: 248: else
  1869                           ;uart_io.c: 249: {
  1870                           ;uart_io.c: 250: RC0=1;
  1871  0631  1283               	bcf	status, 5	;RP0=0, select bank0
  1872  0632  1303               	bcf	status, 6	;RP1=0, select bank0
  1873  0633  1407               	bsf	(56/8),(56)&7
  1874                           	line	251
  1875                           	
  1876  0634                     l3204:	
  1877                           ;uart_io.c: 251: _delay((20000000/4)/9600-20);
  1878                           	opt asmopt_off
  1879  0634  30A6               movlw	166
  1880  0635  00F1               movwf	(??_uart_write+0)+0,f
  1881  0636                     u3587:
  1882  0636  0BF1               decfsz	(??_uart_write+0)+0,f
  1883  0637  2E36               	goto	u3587
  1884  0638  0064               	clrwdt
  1885                           opt asmopt_on
  1886                           
  1887  0639  2E3A               	goto	l3206
  1888                           	line	252
  1889                           	
  1890  063A                     l1095:	
  1891                           	line	241
  1892                           	
  1893  063A                     l3206:	
  1894  063A  0874               	movf	(uart_write@i),w
  1895  063B  00F1               	movwf	(??_uart_write+0)+0
  1896  063C  0771               	addwf	(??_uart_write+0)+0,w
  1897  063D  00F2               	movwf	(??_uart_write+1)+0
  1898  063E  0872               	movf	(??_uart_write+1)+0,w
  1899  063F  00F4               	movwf	(uart_write@i)
  1900  0640  08F4               	movf	(uart_write@i),f
  1901  0641  1D03               	skipz
  1902  0642  2E44               	goto	u3231
  1903  0643  2E45               	goto	u3230
  1904  0644                     u3231:
  1905  0644  2E23               	goto	l3198
  1906  0645                     u3230:
  1907  0645  2E46               	goto	l3208
  1908                           	
  1909  0646                     l1093:	
  1910                           	line	254
  1911                           	
  1912  0646                     l3208:	
  1913                           ;uart_io.c: 252: }
  1914                           ;uart_io.c: 253: }
  1915                           ;uart_io.c: 254: _delay(8);
  1916                           		opt asmopt_off
  1917  0646  2E47               	nop2	;2 cycle nop
  1918                           	opt asmopt_on
  1919                           	opt asmopt_off
  1920  0647  2E48               	nop2	;2 cycle nop
  1921                           	opt asmopt_on
  1922                           	opt asmopt_off
  1923  0648  2E49               	nop2	;2 cycle nop
  1924                           	opt asmopt_on
  1925                           	opt asmopt_off
  1926  0649  2E4A               	nop2	;2 cycle nop
  1927                           	opt asmopt_on
  1928                           
  1929                           	line	255
  1930                           	
  1931  064A                     l3210:	
  1932                           ;uart_io.c: 255: RC0=1;
  1933  064A  1283               	bcf	status, 5	;RP0=0, select bank0
  1934  064B  1303               	bcf	status, 6	;RP1=0, select bank0
  1935  064C  1407               	bsf	(56/8),(56)&7
  1936                           	line	256
  1937                           ;uart_io.c: 256: _delay((20000000/4)/9600-3);
  1938                           	opt asmopt_off
  1939  064D  30AC               movlw	172
  1940  064E  00F1               movwf	(??_uart_write+0)+0,f
  1941  064F                     u3597:
  1942  064F  0BF1               decfsz	(??_uart_write+0)+0,f
  1943  0650  2E4F               	goto	u3597
  1944                           opt asmopt_on
  1945                           
  1946                           	line	257
  1947                           ;uart_io.c: 257: break;
  1948  0651  2FFF               	goto	l1126
  1949                           	line	259
  1950                           ;uart_io.c: 259: case 3:
  1951                           	
  1952  0652                     l1096:	
  1953                           	line	260
  1954                           	
  1955  0652                     l3212:	
  1956                           ;uart_io.c: 260: dummy_byte=0;
  1957  0652  1003               	clrc
  1958  0653  3000               	movlw	0
  1959  0654  1803               	btfsc	status,0
  1960  0655  3001               	movlw	1
  1961  0656  00FD               	movwf	(_dummy_byte)
  1962                           	line	261
  1963                           	
  1964  0657                     l3214:	
  1965                           ;uart_io.c: 261: _delay((20000000/4)/9600-15);
  1966                           	opt asmopt_off
  1967  0657  30A8               movlw	168
  1968  0658  00F1               movwf	(??_uart_write+0)+0,f
  1969  0659                     u3607:
  1970  0659  0BF1               decfsz	(??_uart_write+0)+0,f
  1971  065A  2E59               	goto	u3607
  1972                           opt asmopt_on
  1973                           
  1974                           	line	262
  1975                           ;uart_io.c: 262: for(i=1;i>0;i=i<<1)
  1976  065B  01F4               	clrf	(uart_write@i)
  1977  065C  1403               	bsf	status,0
  1978  065D  0DF4               	rlf	(uart_write@i),f
  1979  065E  08F4               	movf	(uart_write@i),f
  1980  065F  1D03               	skipz
  1981  0660  2E62               	goto	u3241
  1982  0661  2E63               	goto	u3240
  1983  0662                     u3241:
  1984  0662  2E65               	goto	l3218
  1985  0663                     u3240:
  1986  0663  2E89               	goto	l3230
  1987                           	
  1988  0664                     l3216:	
  1989  0664  2E89               	goto	l3230
  1990                           	line	263
  1991                           	
  1992  0665                     l1097:	
  1993                           	line	264
  1994                           	
  1995  0665                     l3218:	
  1996                           ;uart_io.c: 263: {
  1997                           ;uart_io.c: 264: if((data&i)==0)
  1998  0665  0870               	movf	(uart_write@data),w
  1999  0666  0574               	andwf	(uart_write@i),w
  2000  0667  1D03               	btfss	status,2
  2001  0668  2E6A               	goto	u3251
  2002  0669  2E6B               	goto	u3250
  2003  066A                     u3251:
  2004  066A  2E75               	goto	l3224
  2005  066B                     u3250:
  2006                           	line	266
  2007                           	
  2008  066B                     l3220:	
  2009                           ;uart_io.c: 265: {
  2010                           ;uart_io.c: 266: dummy_byte=0;
  2011  066B  1003               	clrc
  2012  066C  3000               	movlw	0
  2013  066D  1803               	btfsc	status,0
  2014  066E  3001               	movlw	1
  2015  066F  00FD               	movwf	(_dummy_byte)
  2016                           	line	267
  2017                           	
  2018  0670                     l3222:	
  2019                           ;uart_io.c: 267: _delay((20000000/4)/9600-21);
  2020                           	opt asmopt_off
  2021  0670  30A6               movlw	166
  2022  0671  00F1               movwf	(??_uart_write+0)+0,f
  2023  0672                     u3617:
  2024  0672  0BF1               decfsz	(??_uart_write+0)+0,f
  2025  0673  2E72               	goto	u3617
  2026                           opt asmopt_on
  2027                           
  2028                           	line	268
  2029                           ;uart_io.c: 268: }
  2030  0674  2E7D               	goto	l1100
  2031                           	line	269
  2032                           	
  2033  0675                     l1099:	
  2034                           	line	271
  2035                           	
  2036  0675                     l3224:	
  2037                           ;uart_io.c: 269: else
  2038                           ;uart_io.c: 270: {
  2039                           ;uart_io.c: 271: dummy_byte=1;
  2040  0675  01FD               	clrf	(_dummy_byte)
  2041  0676  1403               	bsf	status,0
  2042  0677  0DFD               	rlf	(_dummy_byte),f
  2043                           	line	272
  2044                           	
  2045  0678                     l3226:	
  2046                           ;uart_io.c: 272: _delay((20000000/4)/9600-20);
  2047                           	opt asmopt_off
  2048  0678  30A6               movlw	166
  2049  0679  00F1               movwf	(??_uart_write+0)+0,f
  2050  067A                     u3627:
  2051  067A  0BF1               decfsz	(??_uart_write+0)+0,f
  2052  067B  2E7A               	goto	u3627
  2053  067C  0064               	clrwdt
  2054                           opt asmopt_on
  2055                           
  2056                           	line	273
  2057                           	
  2058  067D                     l1100:	
  2059                           	line	262
  2060  067D  0874               	movf	(uart_write@i),w
  2061  067E  00F1               	movwf	(??_uart_write+0)+0
  2062  067F  0771               	addwf	(??_uart_write+0)+0,w
  2063  0680  00F2               	movwf	(??_uart_write+1)+0
  2064  0681  0872               	movf	(??_uart_write+1)+0,w
  2065  0682  00F4               	movwf	(uart_write@i)
  2066                           	
  2067  0683                     l3228:	
  2068  0683  08F4               	movf	(uart_write@i),f
  2069  0684  1D03               	skipz
  2070  0685  2E87               	goto	u3261
  2071  0686  2E88               	goto	u3260
  2072  0687                     u3261:
  2073  0687  2E65               	goto	l3218
  2074  0688                     u3260:
  2075  0688  2E89               	goto	l3230
  2076                           	
  2077  0689                     l1098:	
  2078                           	line	275
  2079                           	
  2080  0689                     l3230:	
  2081                           ;uart_io.c: 273: }
  2082                           ;uart_io.c: 274: }
  2083                           ;uart_io.c: 275: _delay(8);
  2084                           		opt asmopt_off
  2085  0689  2E8A               	nop2	;2 cycle nop
  2086                           	opt asmopt_on
  2087                           	opt asmopt_off
  2088  068A  2E8B               	nop2	;2 cycle nop
  2089                           	opt asmopt_on
  2090                           	opt asmopt_off
  2091  068B  2E8C               	nop2	;2 cycle nop
  2092                           	opt asmopt_on
  2093                           	opt asmopt_off
  2094  068C  2E8D               	nop2	;2 cycle nop
  2095                           	opt asmopt_on
  2096                           
  2097                           	line	276
  2098                           	
  2099  068D                     l3232:	
  2100                           ;uart_io.c: 276: dummy_byte=1;
  2101  068D  01FD               	clrf	(_dummy_byte)
  2102  068E  1403               	bsf	status,0
  2103  068F  0DFD               	rlf	(_dummy_byte),f
  2104                           	line	277
  2105                           	
  2106  0690                     l3234:	
  2107                           ;uart_io.c: 277: _delay((20000000/4)/9600-3);
  2108                           	opt asmopt_off
  2109  0690  30AC               movlw	172
  2110  0691  00F1               movwf	(??_uart_write+0)+0,f
  2111  0692                     u3637:
  2112  0692  0BF1               decfsz	(??_uart_write+0)+0,f
  2113  0693  2E92               	goto	u3637
  2114                           opt asmopt_on
  2115                           
  2116                           	line	278
  2117                           ;uart_io.c: 278: break;
  2118  0694  2FFF               	goto	l1126
  2119                           	line	280
  2120                           ;uart_io.c: 280: case 4:
  2121                           	
  2122  0695                     l1101:	
  2123                           	line	281
  2124                           	
  2125  0695                     l3236:	
  2126                           ;uart_io.c: 281: dummy_byte=0;
  2127  0695  1003               	clrc
  2128  0696  3000               	movlw	0
  2129  0697  1803               	btfsc	status,0
  2130  0698  3001               	movlw	1
  2131  0699  00FD               	movwf	(_dummy_byte)
  2132                           	line	282
  2133                           	
  2134  069A                     l3238:	
  2135                           ;uart_io.c: 282: _delay((20000000/4)/9600-15);
  2136                           	opt asmopt_off
  2137  069A  30A8               movlw	168
  2138  069B  00F1               movwf	(??_uart_write+0)+0,f
  2139  069C                     u3647:
  2140  069C  0BF1               decfsz	(??_uart_write+0)+0,f
  2141  069D  2E9C               	goto	u3647
  2142                           opt asmopt_on
  2143                           
  2144                           	line	283
  2145                           ;uart_io.c: 283: for(i=1;i>0;i=i<<1)
  2146  069E  01F4               	clrf	(uart_write@i)
  2147  069F  1403               	bsf	status,0
  2148  06A0  0DF4               	rlf	(uart_write@i),f
  2149  06A1  08F4               	movf	(uart_write@i),f
  2150  06A2  1D03               	skipz
  2151  06A3  2EA5               	goto	u3271
  2152  06A4  2EA6               	goto	u3270
  2153  06A5                     u3271:
  2154  06A5  2EA8               	goto	l3242
  2155  06A6                     u3270:
  2156  06A6  2ECC               	goto	l3254
  2157                           	
  2158  06A7                     l3240:	
  2159  06A7  2ECC               	goto	l3254
  2160                           	line	284
  2161                           	
  2162  06A8                     l1102:	
  2163                           	line	285
  2164                           	
  2165  06A8                     l3242:	
  2166                           ;uart_io.c: 284: {
  2167                           ;uart_io.c: 285: if((data&i)==0)
  2168  06A8  0870               	movf	(uart_write@data),w
  2169  06A9  0574               	andwf	(uart_write@i),w
  2170  06AA  1D03               	btfss	status,2
  2171  06AB  2EAD               	goto	u3281
  2172  06AC  2EAE               	goto	u3280
  2173  06AD                     u3281:
  2174  06AD  2EB8               	goto	l3248
  2175  06AE                     u3280:
  2176                           	line	287
  2177                           	
  2178  06AE                     l3244:	
  2179                           ;uart_io.c: 286: {
  2180                           ;uart_io.c: 287: dummy_byte=0;
  2181  06AE  1003               	clrc
  2182  06AF  3000               	movlw	0
  2183  06B0  1803               	btfsc	status,0
  2184  06B1  3001               	movlw	1
  2185  06B2  00FD               	movwf	(_dummy_byte)
  2186                           	line	288
  2187                           	
  2188  06B3                     l3246:	
  2189                           ;uart_io.c: 288: _delay((20000000/4)/9600-21);
  2190                           	opt asmopt_off
  2191  06B3  30A6               movlw	166
  2192  06B4  00F1               movwf	(??_uart_write+0)+0,f
  2193  06B5                     u3657:
  2194  06B5  0BF1               decfsz	(??_uart_write+0)+0,f
  2195  06B6  2EB5               	goto	u3657
  2196                           opt asmopt_on
  2197                           
  2198                           	line	289
  2199                           ;uart_io.c: 289: }
  2200  06B7  2EC0               	goto	l1105
  2201                           	line	290
  2202                           	
  2203  06B8                     l1104:	
  2204                           	line	292
  2205                           	
  2206  06B8                     l3248:	
  2207                           ;uart_io.c: 290: else
  2208                           ;uart_io.c: 291: {
  2209                           ;uart_io.c: 292: dummy_byte=1;
  2210  06B8  01FD               	clrf	(_dummy_byte)
  2211  06B9  1403               	bsf	status,0
  2212  06BA  0DFD               	rlf	(_dummy_byte),f
  2213                           	line	293
  2214                           	
  2215  06BB                     l3250:	
  2216                           ;uart_io.c: 293: _delay((20000000/4)/9600-20);
  2217                           	opt asmopt_off
  2218  06BB  30A6               movlw	166
  2219  06BC  00F1               movwf	(??_uart_write+0)+0,f
  2220  06BD                     u3667:
  2221  06BD  0BF1               decfsz	(??_uart_write+0)+0,f
  2222  06BE  2EBD               	goto	u3667
  2223  06BF  0064               	clrwdt
  2224                           opt asmopt_on
  2225                           
  2226                           	line	294
  2227                           	
  2228  06C0                     l1105:	
  2229                           	line	283
  2230  06C0  0874               	movf	(uart_write@i),w
  2231  06C1  00F1               	movwf	(??_uart_write+0)+0
  2232  06C2  0771               	addwf	(??_uart_write+0)+0,w
  2233  06C3  00F2               	movwf	(??_uart_write+1)+0
  2234  06C4  0872               	movf	(??_uart_write+1)+0,w
  2235  06C5  00F4               	movwf	(uart_write@i)
  2236                           	
  2237  06C6                     l3252:	
  2238  06C6  08F4               	movf	(uart_write@i),f
  2239  06C7  1D03               	skipz
  2240  06C8  2ECA               	goto	u3291
  2241  06C9  2ECB               	goto	u3290
  2242  06CA                     u3291:
  2243  06CA  2EA8               	goto	l3242
  2244  06CB                     u3290:
  2245  06CB  2ECC               	goto	l3254
  2246                           	
  2247  06CC                     l1103:	
  2248                           	line	296
  2249                           	
  2250  06CC                     l3254:	
  2251                           ;uart_io.c: 294: }
  2252                           ;uart_io.c: 295: }
  2253                           ;uart_io.c: 296: _delay(8);
  2254                           		opt asmopt_off
  2255  06CC  2ECD               	nop2	;2 cycle nop
  2256                           	opt asmopt_on
  2257                           	opt asmopt_off
  2258  06CD  2ECE               	nop2	;2 cycle nop
  2259                           	opt asmopt_on
  2260                           	opt asmopt_off
  2261  06CE  2ECF               	nop2	;2 cycle nop
  2262                           	opt asmopt_on
  2263                           	opt asmopt_off
  2264  06CF  2ED0               	nop2	;2 cycle nop
  2265                           	opt asmopt_on
  2266                           
  2267                           	line	297
  2268                           	
  2269  06D0                     l3256:	
  2270                           ;uart_io.c: 297: dummy_byte=1;
  2271  06D0  01FD               	clrf	(_dummy_byte)
  2272  06D1  1403               	bsf	status,0
  2273  06D2  0DFD               	rlf	(_dummy_byte),f
  2274                           	line	298
  2275                           	
  2276  06D3                     l3258:	
  2277                           ;uart_io.c: 298: _delay((20000000/4)/9600-3);
  2278                           	opt asmopt_off
  2279  06D3  30AC               movlw	172
  2280  06D4  00F1               movwf	(??_uart_write+0)+0,f
  2281  06D5                     u3677:
  2282  06D5  0BF1               decfsz	(??_uart_write+0)+0,f
  2283  06D6  2ED5               	goto	u3677
  2284                           opt asmopt_on
  2285                           
  2286                           	line	299
  2287                           ;uart_io.c: 299: break;
  2288  06D7  2FFF               	goto	l1126
  2289                           	line	301
  2290                           ;uart_io.c: 301: case 5:
  2291                           	
  2292  06D8                     l1106:	
  2293                           	line	302
  2294                           	
  2295  06D8                     l3260:	
  2296                           ;uart_io.c: 302: dummy_byte=0;
  2297  06D8  1003               	clrc
  2298  06D9  3000               	movlw	0
  2299  06DA  1803               	btfsc	status,0
  2300  06DB  3001               	movlw	1
  2301  06DC  00FD               	movwf	(_dummy_byte)
  2302                           	line	303
  2303                           	
  2304  06DD                     l3262:	
  2305                           ;uart_io.c: 303: _delay((20000000/4)/9600-15);
  2306                           	opt asmopt_off
  2307  06DD  30A8               movlw	168
  2308  06DE  00F1               movwf	(??_uart_write+0)+0,f
  2309  06DF                     u3687:
  2310  06DF  0BF1               decfsz	(??_uart_write+0)+0,f
  2311  06E0  2EDF               	goto	u3687
  2312                           opt asmopt_on
  2313                           
  2314                           	line	304
  2315                           ;uart_io.c: 304: for(i=1;i>0;i=i<<1)
  2316  06E1  01F4               	clrf	(uart_write@i)
  2317  06E2  1403               	bsf	status,0
  2318  06E3  0DF4               	rlf	(uart_write@i),f
  2319  06E4  08F4               	movf	(uart_write@i),f
  2320  06E5  1D03               	skipz
  2321  06E6  2EE8               	goto	u3301
  2322  06E7  2EE9               	goto	u3300
  2323  06E8                     u3301:
  2324  06E8  2EEB               	goto	l3266
  2325  06E9                     u3300:
  2326  06E9  2F0F               	goto	l3278
  2327                           	
  2328  06EA                     l3264:	
  2329  06EA  2F0F               	goto	l3278
  2330                           	line	305
  2331                           	
  2332  06EB                     l1107:	
  2333                           	line	306
  2334                           	
  2335  06EB                     l3266:	
  2336                           ;uart_io.c: 305: {
  2337                           ;uart_io.c: 306: if((data&i)==0)
  2338  06EB  0870               	movf	(uart_write@data),w
  2339  06EC  0574               	andwf	(uart_write@i),w
  2340  06ED  1D03               	btfss	status,2
  2341  06EE  2EF0               	goto	u3311
  2342  06EF  2EF1               	goto	u3310
  2343  06F0                     u3311:
  2344  06F0  2EFB               	goto	l3272
  2345  06F1                     u3310:
  2346                           	line	308
  2347                           	
  2348  06F1                     l3268:	
  2349                           ;uart_io.c: 307: {
  2350                           ;uart_io.c: 308: dummy_byte=0;
  2351  06F1  1003               	clrc
  2352  06F2  3000               	movlw	0
  2353  06F3  1803               	btfsc	status,0
  2354  06F4  3001               	movlw	1
  2355  06F5  00FD               	movwf	(_dummy_byte)
  2356                           	line	309
  2357                           	
  2358  06F6                     l3270:	
  2359                           ;uart_io.c: 309: _delay((20000000/4)/9600-21);
  2360                           	opt asmopt_off
  2361  06F6  30A6               movlw	166
  2362  06F7  00F1               movwf	(??_uart_write+0)+0,f
  2363  06F8                     u3697:
  2364  06F8  0BF1               decfsz	(??_uart_write+0)+0,f
  2365  06F9  2EF8               	goto	u3697
  2366                           opt asmopt_on
  2367                           
  2368                           	line	310
  2369                           ;uart_io.c: 310: }
  2370  06FA  2F03               	goto	l1110
  2371                           	line	311
  2372                           	
  2373  06FB                     l1109:	
  2374                           	line	313
  2375                           	
  2376  06FB                     l3272:	
  2377                           ;uart_io.c: 311: else
  2378                           ;uart_io.c: 312: {
  2379                           ;uart_io.c: 313: dummy_byte=1;
  2380  06FB  01FD               	clrf	(_dummy_byte)
  2381  06FC  1403               	bsf	status,0
  2382  06FD  0DFD               	rlf	(_dummy_byte),f
  2383                           	line	314
  2384                           	
  2385  06FE                     l3274:	
  2386                           ;uart_io.c: 314: _delay((20000000/4)/9600-20);
  2387                           	opt asmopt_off
  2388  06FE  30A6               movlw	166
  2389  06FF  00F1               movwf	(??_uart_write+0)+0,f
  2390  0700                     u3707:
  2391  0700  0BF1               decfsz	(??_uart_write+0)+0,f
  2392  0701  2F00               	goto	u3707
  2393  0702  0064               	clrwdt
  2394                           opt asmopt_on
  2395                           
  2396                           	line	315
  2397                           	
  2398  0703                     l1110:	
  2399                           	line	304
  2400  0703  0874               	movf	(uart_write@i),w
  2401  0704  00F1               	movwf	(??_uart_write+0)+0
  2402  0705  0771               	addwf	(??_uart_write+0)+0,w
  2403  0706  00F2               	movwf	(??_uart_write+1)+0
  2404  0707  0872               	movf	(??_uart_write+1)+0,w
  2405  0708  00F4               	movwf	(uart_write@i)
  2406                           	
  2407  0709                     l3276:	
  2408  0709  08F4               	movf	(uart_write@i),f
  2409  070A  1D03               	skipz
  2410  070B  2F0D               	goto	u3321
  2411  070C  2F0E               	goto	u3320
  2412  070D                     u3321:
  2413  070D  2EEB               	goto	l3266
  2414  070E                     u3320:
  2415  070E  2F0F               	goto	l3278
  2416                           	
  2417  070F                     l1108:	
  2418                           	line	317
  2419                           	
  2420  070F                     l3278:	
  2421                           ;uart_io.c: 315: }
  2422                           ;uart_io.c: 316: }
  2423                           ;uart_io.c: 317: _delay(8);
  2424                           		opt asmopt_off
  2425  070F  2F10               	nop2	;2 cycle nop
  2426                           	opt asmopt_on
  2427                           	opt asmopt_off
  2428  0710  2F11               	nop2	;2 cycle nop
  2429                           	opt asmopt_on
  2430                           	opt asmopt_off
  2431  0711  2F12               	nop2	;2 cycle nop
  2432                           	opt asmopt_on
  2433                           	opt asmopt_off
  2434  0712  2F13               	nop2	;2 cycle nop
  2435                           	opt asmopt_on
  2436                           
  2437                           	line	318
  2438                           	
  2439  0713                     l3280:	
  2440                           ;uart_io.c: 318: dummy_byte=1;
  2441  0713  01FD               	clrf	(_dummy_byte)
  2442  0714  1403               	bsf	status,0
  2443  0715  0DFD               	rlf	(_dummy_byte),f
  2444                           	line	319
  2445                           	
  2446  0716                     l3282:	
  2447                           ;uart_io.c: 319: _delay((20000000/4)/9600-3);
  2448                           	opt asmopt_off
  2449  0716  30AC               movlw	172
  2450  0717  00F1               movwf	(??_uart_write+0)+0,f
  2451  0718                     u3717:
  2452  0718  0BF1               decfsz	(??_uart_write+0)+0,f
  2453  0719  2F18               	goto	u3717
  2454                           opt asmopt_on
  2455                           
  2456                           	line	320
  2457                           ;uart_io.c: 320: break;
  2458  071A  2FFF               	goto	l1126
  2459                           	line	322
  2460                           ;uart_io.c: 322: case 6:
  2461                           	
  2462  071B                     l1111:	
  2463                           	line	323
  2464                           	
  2465  071B                     l3284:	
  2466                           ;uart_io.c: 323: dummy_byte=0;
  2467  071B  1003               	clrc
  2468  071C  3000               	movlw	0
  2469  071D  1803               	btfsc	status,0
  2470  071E  3001               	movlw	1
  2471  071F  00FD               	movwf	(_dummy_byte)
  2472                           	line	324
  2473                           	
  2474  0720                     l3286:	
  2475                           ;uart_io.c: 324: _delay((20000000/4)/9600-15);
  2476                           	opt asmopt_off
  2477  0720  30A8               movlw	168
  2478  0721  00F1               movwf	(??_uart_write+0)+0,f
  2479  0722                     u3727:
  2480  0722  0BF1               decfsz	(??_uart_write+0)+0,f
  2481  0723  2F22               	goto	u3727
  2482                           opt asmopt_on
  2483                           
  2484                           	line	325
  2485                           ;uart_io.c: 325: for(i=1;i>0;i=i<<1)
  2486  0724  01F4               	clrf	(uart_write@i)
  2487  0725  1403               	bsf	status,0
  2488  0726  0DF4               	rlf	(uart_write@i),f
  2489  0727  08F4               	movf	(uart_write@i),f
  2490  0728  1D03               	skipz
  2491  0729  2F2B               	goto	u3331
  2492  072A  2F2C               	goto	u3330
  2493  072B                     u3331:
  2494  072B  2F2E               	goto	l3290
  2495  072C                     u3330:
  2496  072C  2F52               	goto	l3302
  2497                           	
  2498  072D                     l3288:	
  2499  072D  2F52               	goto	l3302
  2500                           	line	326
  2501                           	
  2502  072E                     l1112:	
  2503                           	line	327
  2504                           	
  2505  072E                     l3290:	
  2506                           ;uart_io.c: 326: {
  2507                           ;uart_io.c: 327: if((data&i)==0)
  2508  072E  0870               	movf	(uart_write@data),w
  2509  072F  0574               	andwf	(uart_write@i),w
  2510  0730  1D03               	btfss	status,2
  2511  0731  2F33               	goto	u3341
  2512  0732  2F34               	goto	u3340
  2513  0733                     u3341:
  2514  0733  2F3E               	goto	l3296
  2515  0734                     u3340:
  2516                           	line	329
  2517                           	
  2518  0734                     l3292:	
  2519                           ;uart_io.c: 328: {
  2520                           ;uart_io.c: 329: dummy_byte=0;
  2521  0734  1003               	clrc
  2522  0735  3000               	movlw	0
  2523  0736  1803               	btfsc	status,0
  2524  0737  3001               	movlw	1
  2525  0738  00FD               	movwf	(_dummy_byte)
  2526                           	line	330
  2527                           	
  2528  0739                     l3294:	
  2529                           ;uart_io.c: 330: _delay((20000000/4)/9600-21);
  2530                           	opt asmopt_off
  2531  0739  30A6               movlw	166
  2532  073A  00F1               movwf	(??_uart_write+0)+0,f
  2533  073B                     u3737:
  2534  073B  0BF1               decfsz	(??_uart_write+0)+0,f
  2535  073C  2F3B               	goto	u3737
  2536                           opt asmopt_on
  2537                           
  2538                           	line	331
  2539                           ;uart_io.c: 331: }
  2540  073D  2F46               	goto	l1115
  2541                           	line	332
  2542                           	
  2543  073E                     l1114:	
  2544                           	line	334
  2545                           	
  2546  073E                     l3296:	
  2547                           ;uart_io.c: 332: else
  2548                           ;uart_io.c: 333: {
  2549                           ;uart_io.c: 334: dummy_byte=1;
  2550  073E  01FD               	clrf	(_dummy_byte)
  2551  073F  1403               	bsf	status,0
  2552  0740  0DFD               	rlf	(_dummy_byte),f
  2553                           	line	335
  2554                           	
  2555  0741                     l3298:	
  2556                           ;uart_io.c: 335: _delay((20000000/4)/9600-20);
  2557                           	opt asmopt_off
  2558  0741  30A6               movlw	166
  2559  0742  00F1               movwf	(??_uart_write+0)+0,f
  2560  0743                     u3747:
  2561  0743  0BF1               decfsz	(??_uart_write+0)+0,f
  2562  0744  2F43               	goto	u3747
  2563  0745  0064               	clrwdt
  2564                           opt asmopt_on
  2565                           
  2566                           	line	336
  2567                           	
  2568  0746                     l1115:	
  2569                           	line	325
  2570  0746  0874               	movf	(uart_write@i),w
  2571  0747  00F1               	movwf	(??_uart_write+0)+0
  2572  0748  0771               	addwf	(??_uart_write+0)+0,w
  2573  0749  00F2               	movwf	(??_uart_write+1)+0
  2574  074A  0872               	movf	(??_uart_write+1)+0,w
  2575  074B  00F4               	movwf	(uart_write@i)
  2576                           	
  2577  074C                     l3300:	
  2578  074C  08F4               	movf	(uart_write@i),f
  2579  074D  1D03               	skipz
  2580  074E  2F50               	goto	u3351
  2581  074F  2F51               	goto	u3350
  2582  0750                     u3351:
  2583  0750  2F2E               	goto	l3290
  2584  0751                     u3350:
  2585  0751  2F52               	goto	l3302
  2586                           	
  2587  0752                     l1113:	
  2588                           	line	338
  2589                           	
  2590  0752                     l3302:	
  2591                           ;uart_io.c: 336: }
  2592                           ;uart_io.c: 337: }
  2593                           ;uart_io.c: 338: _delay(8);
  2594                           		opt asmopt_off
  2595  0752  2F53               	nop2	;2 cycle nop
  2596                           	opt asmopt_on
  2597                           	opt asmopt_off
  2598  0753  2F54               	nop2	;2 cycle nop
  2599                           	opt asmopt_on
  2600                           	opt asmopt_off
  2601  0754  2F55               	nop2	;2 cycle nop
  2602                           	opt asmopt_on
  2603                           	opt asmopt_off
  2604  0755  2F56               	nop2	;2 cycle nop
  2605                           	opt asmopt_on
  2606                           
  2607                           	line	339
  2608                           	
  2609  0756                     l3304:	
  2610                           ;uart_io.c: 339: dummy_byte=1;
  2611  0756  01FD               	clrf	(_dummy_byte)
  2612  0757  1403               	bsf	status,0
  2613  0758  0DFD               	rlf	(_dummy_byte),f
  2614                           	line	340
  2615                           	
  2616  0759                     l3306:	
  2617                           ;uart_io.c: 340: _delay((20000000/4)/9600-3);
  2618                           	opt asmopt_off
  2619  0759  30AC               movlw	172
  2620  075A  00F1               movwf	(??_uart_write+0)+0,f
  2621  075B                     u3757:
  2622  075B  0BF1               decfsz	(??_uart_write+0)+0,f
  2623  075C  2F5B               	goto	u3757
  2624                           opt asmopt_on
  2625                           
  2626                           	line	341
  2627                           ;uart_io.c: 341: break;
  2628  075D  2FFF               	goto	l1126
  2629                           	line	343
  2630                           ;uart_io.c: 343: case 7:
  2631                           	
  2632  075E                     l1116:	
  2633                           	line	344
  2634                           	
  2635  075E                     l3308:	
  2636                           ;uart_io.c: 344: dummy_byte=0;
  2637  075E  1003               	clrc
  2638  075F  3000               	movlw	0
  2639  0760  1803               	btfsc	status,0
  2640  0761  3001               	movlw	1
  2641  0762  00FD               	movwf	(_dummy_byte)
  2642                           	line	345
  2643                           	
  2644  0763                     l3310:	
  2645                           ;uart_io.c: 345: _delay((20000000/4)/9600-15);
  2646                           	opt asmopt_off
  2647  0763  30A8               movlw	168
  2648  0764  00F1               movwf	(??_uart_write+0)+0,f
  2649  0765                     u3767:
  2650  0765  0BF1               decfsz	(??_uart_write+0)+0,f
  2651  0766  2F65               	goto	u3767
  2652                           opt asmopt_on
  2653                           
  2654                           	line	346
  2655                           ;uart_io.c: 346: for(i=1;i>0;i=i<<1)
  2656  0767  01F4               	clrf	(uart_write@i)
  2657  0768  1403               	bsf	status,0
  2658  0769  0DF4               	rlf	(uart_write@i),f
  2659  076A  08F4               	movf	(uart_write@i),f
  2660  076B  1D03               	skipz
  2661  076C  2F6E               	goto	u3361
  2662  076D  2F6F               	goto	u3360
  2663  076E                     u3361:
  2664  076E  2F71               	goto	l3314
  2665  076F                     u3360:
  2666  076F  2F95               	goto	l3326
  2667                           	
  2668  0770                     l3312:	
  2669  0770  2F95               	goto	l3326
  2670                           	line	347
  2671                           	
  2672  0771                     l1117:	
  2673                           	line	348
  2674                           	
  2675  0771                     l3314:	
  2676                           ;uart_io.c: 347: {
  2677                           ;uart_io.c: 348: if((data&i)==0)
  2678  0771  0870               	movf	(uart_write@data),w
  2679  0772  0574               	andwf	(uart_write@i),w
  2680  0773  1D03               	btfss	status,2
  2681  0774  2F76               	goto	u3371
  2682  0775  2F77               	goto	u3370
  2683  0776                     u3371:
  2684  0776  2F81               	goto	l3320
  2685  0777                     u3370:
  2686                           	line	350
  2687                           	
  2688  0777                     l3316:	
  2689                           ;uart_io.c: 349: {
  2690                           ;uart_io.c: 350: dummy_byte=0;
  2691  0777  1003               	clrc
  2692  0778  3000               	movlw	0
  2693  0779  1803               	btfsc	status,0
  2694  077A  3001               	movlw	1
  2695  077B  00FD               	movwf	(_dummy_byte)
  2696                           	line	351
  2697                           	
  2698  077C                     l3318:	
  2699                           ;uart_io.c: 351: _delay((20000000/4)/9600-21);
  2700                           	opt asmopt_off
  2701  077C  30A6               movlw	166
  2702  077D  00F1               movwf	(??_uart_write+0)+0,f
  2703  077E                     u3777:
  2704  077E  0BF1               decfsz	(??_uart_write+0)+0,f
  2705  077F  2F7E               	goto	u3777
  2706                           opt asmopt_on
  2707                           
  2708                           	line	352
  2709                           ;uart_io.c: 352: }
  2710  0780  2F89               	goto	l1120
  2711                           	line	353
  2712                           	
  2713  0781                     l1119:	
  2714                           	line	355
  2715                           	
  2716  0781                     l3320:	
  2717                           ;uart_io.c: 353: else
  2718                           ;uart_io.c: 354: {
  2719                           ;uart_io.c: 355: dummy_byte=1;
  2720  0781  01FD               	clrf	(_dummy_byte)
  2721  0782  1403               	bsf	status,0
  2722  0783  0DFD               	rlf	(_dummy_byte),f
  2723                           	line	356
  2724                           	
  2725  0784                     l3322:	
  2726                           ;uart_io.c: 356: _delay((20000000/4)/9600-20);
  2727                           	opt asmopt_off
  2728  0784  30A6               movlw	166
  2729  0785  00F1               movwf	(??_uart_write+0)+0,f
  2730  0786                     u3787:
  2731  0786  0BF1               decfsz	(??_uart_write+0)+0,f
  2732  0787  2F86               	goto	u3787
  2733  0788  0064               	clrwdt
  2734                           opt asmopt_on
  2735                           
  2736                           	line	357
  2737                           	
  2738  0789                     l1120:	
  2739                           	line	346
  2740  0789  0874               	movf	(uart_write@i),w
  2741  078A  00F1               	movwf	(??_uart_write+0)+0
  2742  078B  0771               	addwf	(??_uart_write+0)+0,w
  2743  078C  00F2               	movwf	(??_uart_write+1)+0
  2744  078D  0872               	movf	(??_uart_write+1)+0,w
  2745  078E  00F4               	movwf	(uart_write@i)
  2746                           	
  2747  078F                     l3324:	
  2748  078F  08F4               	movf	(uart_write@i),f
  2749  0790  1D03               	skipz
  2750  0791  2F93               	goto	u3381
  2751  0792  2F94               	goto	u3380
  2752  0793                     u3381:
  2753  0793  2F71               	goto	l3314
  2754  0794                     u3380:
  2755  0794  2F95               	goto	l3326
  2756                           	
  2757  0795                     l1118:	
  2758                           	line	359
  2759                           	
  2760  0795                     l3326:	
  2761                           ;uart_io.c: 357: }
  2762                           ;uart_io.c: 358: }
  2763                           ;uart_io.c: 359: _delay(8);
  2764                           		opt asmopt_off
  2765  0795  2F96               	nop2	;2 cycle nop
  2766                           	opt asmopt_on
  2767                           	opt asmopt_off
  2768  0796  2F97               	nop2	;2 cycle nop
  2769                           	opt asmopt_on
  2770                           	opt asmopt_off
  2771  0797  2F98               	nop2	;2 cycle nop
  2772                           	opt asmopt_on
  2773                           	opt asmopt_off
  2774  0798  2F99               	nop2	;2 cycle nop
  2775                           	opt asmopt_on
  2776                           
  2777                           	line	360
  2778                           	
  2779  0799                     l3328:	
  2780                           ;uart_io.c: 360: dummy_byte=1;
  2781  0799  01FD               	clrf	(_dummy_byte)
  2782  079A  1403               	bsf	status,0
  2783  079B  0DFD               	rlf	(_dummy_byte),f
  2784                           	line	361
  2785                           	
  2786  079C                     l3330:	
  2787                           ;uart_io.c: 361: _delay((20000000/4)/9600-3);
  2788                           	opt asmopt_off
  2789  079C  30AC               movlw	172
  2790  079D  00F1               movwf	(??_uart_write+0)+0,f
  2791  079E                     u3797:
  2792  079E  0BF1               decfsz	(??_uart_write+0)+0,f
  2793  079F  2F9E               	goto	u3797
  2794                           opt asmopt_on
  2795                           
  2796                           	line	362
  2797                           ;uart_io.c: 362: break;
  2798  07A0  2FFF               	goto	l1126
  2799                           	line	364
  2800                           ;uart_io.c: 364: case 8:
  2801                           	
  2802  07A1                     l1121:	
  2803                           	line	365
  2804                           	
  2805  07A1                     l3332:	
  2806                           ;uart_io.c: 365: dummy_byte=0;
  2807  07A1  1003               	clrc
  2808  07A2  3000               	movlw	0
  2809  07A3  1803               	btfsc	status,0
  2810  07A4  3001               	movlw	1
  2811  07A5  00FD               	movwf	(_dummy_byte)
  2812                           	line	366
  2813                           	
  2814  07A6                     l3334:	
  2815                           ;uart_io.c: 366: _delay((20000000/4)/9600-15);
  2816                           	opt asmopt_off
  2817  07A6  30A8               movlw	168
  2818  07A7  00F1               movwf	(??_uart_write+0)+0,f
  2819  07A8                     u3807:
  2820  07A8  0BF1               decfsz	(??_uart_write+0)+0,f
  2821  07A9  2FA8               	goto	u3807
  2822                           opt asmopt_on
  2823                           
  2824                           	line	367
  2825                           ;uart_io.c: 367: for(i=1;i>0;i=i<<1)
  2826  07AA  01F4               	clrf	(uart_write@i)
  2827  07AB  1403               	bsf	status,0
  2828  07AC  0DF4               	rlf	(uart_write@i),f
  2829  07AD  08F4               	movf	(uart_write@i),f
  2830  07AE  1D03               	skipz
  2831  07AF  2FB1               	goto	u3391
  2832  07B0  2FB2               	goto	u3390
  2833  07B1                     u3391:
  2834  07B1  2FB4               	goto	l3338
  2835  07B2                     u3390:
  2836  07B2  2FD8               	goto	l3350
  2837                           	
  2838  07B3                     l3336:	
  2839  07B3  2FD8               	goto	l3350
  2840                           	line	368
  2841                           	
  2842  07B4                     l1122:	
  2843                           	line	369
  2844                           	
  2845  07B4                     l3338:	
  2846                           ;uart_io.c: 368: {
  2847                           ;uart_io.c: 369: if((data&i)==0)
  2848  07B4  0870               	movf	(uart_write@data),w
  2849  07B5  0574               	andwf	(uart_write@i),w
  2850  07B6  1D03               	btfss	status,2
  2851  07B7  2FB9               	goto	u3401
  2852  07B8  2FBA               	goto	u3400
  2853  07B9                     u3401:
  2854  07B9  2FC4               	goto	l3344
  2855  07BA                     u3400:
  2856                           	line	371
  2857                           	
  2858  07BA                     l3340:	
  2859                           ;uart_io.c: 370: {
  2860                           ;uart_io.c: 371: dummy_byte=0;
  2861  07BA  1003               	clrc
  2862  07BB  3000               	movlw	0
  2863  07BC  1803               	btfsc	status,0
  2864  07BD  3001               	movlw	1
  2865  07BE  00FD               	movwf	(_dummy_byte)
  2866                           	line	372
  2867                           	
  2868  07BF                     l3342:	
  2869                           ;uart_io.c: 372: _delay((20000000/4)/9600-21);
  2870                           	opt asmopt_off
  2871  07BF  30A6               movlw	166
  2872  07C0  00F1               movwf	(??_uart_write+0)+0,f
  2873  07C1                     u3817:
  2874  07C1  0BF1               decfsz	(??_uart_write+0)+0,f
  2875  07C2  2FC1               	goto	u3817
  2876                           opt asmopt_on
  2877                           
  2878                           	line	373
  2879                           ;uart_io.c: 373: }
  2880  07C3  2FCC               	goto	l1125
  2881                           	line	374
  2882                           	
  2883  07C4                     l1124:	
  2884                           	line	376
  2885                           	
  2886  07C4                     l3344:	
  2887                           ;uart_io.c: 374: else
  2888                           ;uart_io.c: 375: {
  2889                           ;uart_io.c: 376: dummy_byte=1;
  2890  07C4  01FD               	clrf	(_dummy_byte)
  2891  07C5  1403               	bsf	status,0
  2892  07C6  0DFD               	rlf	(_dummy_byte),f
  2893                           	line	377
  2894                           	
  2895  07C7                     l3346:	
  2896                           ;uart_io.c: 377: _delay((20000000/4)/9600-20);
  2897                           	opt asmopt_off
  2898  07C7  30A6               movlw	166
  2899  07C8  00F1               movwf	(??_uart_write+0)+0,f
  2900  07C9                     u3827:
  2901  07C9  0BF1               decfsz	(??_uart_write+0)+0,f
  2902  07CA  2FC9               	goto	u3827
  2903  07CB  0064               	clrwdt
  2904                           opt asmopt_on
  2905                           
  2906                           	line	378
  2907                           	
  2908  07CC                     l1125:	
  2909                           	line	367
  2910  07CC  0874               	movf	(uart_write@i),w
  2911  07CD  00F1               	movwf	(??_uart_write+0)+0
  2912  07CE  0771               	addwf	(??_uart_write+0)+0,w
  2913  07CF  00F2               	movwf	(??_uart_write+1)+0
  2914  07D0  0872               	movf	(??_uart_write+1)+0,w
  2915  07D1  00F4               	movwf	(uart_write@i)
  2916                           	
  2917  07D2                     l3348:	
  2918  07D2  08F4               	movf	(uart_write@i),f
  2919  07D3  1D03               	skipz
  2920  07D4  2FD6               	goto	u3411
  2921  07D5  2FD7               	goto	u3410
  2922  07D6                     u3411:
  2923  07D6  2FB4               	goto	l3338
  2924  07D7                     u3410:
  2925  07D7  2FD8               	goto	l3350
  2926                           	
  2927  07D8                     l1123:	
  2928                           	line	380
  2929                           	
  2930  07D8                     l3350:	
  2931                           ;uart_io.c: 378: }
  2932                           ;uart_io.c: 379: }
  2933                           ;uart_io.c: 380: _delay(8);
  2934                           		opt asmopt_off
  2935  07D8  2FD9               	nop2	;2 cycle nop
  2936                           	opt asmopt_on
  2937                           	opt asmopt_off
  2938  07D9  2FDA               	nop2	;2 cycle nop
  2939                           	opt asmopt_on
  2940                           	opt asmopt_off
  2941  07DA  2FDB               	nop2	;2 cycle nop
  2942                           	opt asmopt_on
  2943                           	opt asmopt_off
  2944  07DB  2FDC               	nop2	;2 cycle nop
  2945                           	opt asmopt_on
  2946                           
  2947                           	line	381
  2948                           	
  2949  07DC                     l3352:	
  2950                           ;uart_io.c: 381: dummy_byte=1;
  2951  07DC  01FD               	clrf	(_dummy_byte)
  2952  07DD  1403               	bsf	status,0
  2953  07DE  0DFD               	rlf	(_dummy_byte),f
  2954                           	line	382
  2955                           	
  2956  07DF                     l3354:	
  2957                           ;uart_io.c: 382: _delay((20000000/4)/9600-3);
  2958                           	opt asmopt_off
  2959  07DF  30AC               movlw	172
  2960  07E0  00F1               movwf	(??_uart_write+0)+0,f
  2961  07E1                     u3837:
  2962  07E1  0BF1               decfsz	(??_uart_write+0)+0,f
  2963  07E2  2FE1               	goto	u3837
  2964                           opt asmopt_on
  2965                           
  2966                           	line	383
  2967                           ;uart_io.c: 383: break;
  2968  07E3  2FFF               	goto	l1126
  2969                           	line	385
  2970                           	
  2971  07E4                     l3356:	
  2972                           ;uart_io.c: 385: }
  2973  07E4  2FFF               	goto	l1126
  2974                           	line	215
  2975                           	
  2976  07E5                     l1084:	
  2977                           	
  2978  07E5                     l3358:	
  2979  07E5  0873               	movf	(uart_write@channel),w
  2980                           	; Switch size 1, requested type "space"
  2981                           ; Number of cases is 8, Range of values is 1 to 8
  2982                           ; switch strategies available:
  2983                           ; Name         Bytes Cycles
  2984                           ; simple_byte    25    13 (average)
  2985                           ; direct_byte    46    22 (fixed)
  2986                           ;	Chosen strategy is simple_byte
  2987                           
  2988  07E6  3A01               	xorlw	1^0	; case 1
  2989  07E7  1903               	skipnz
  2990  07E8  2DD2               	goto	l1085
  2991  07E9  3A03               	xorlw	2^1	; case 2
  2992  07EA  1903               	skipnz
  2993  07EB  2E12               	goto	l1091
  2994  07EC  3A01               	xorlw	3^2	; case 3
  2995  07ED  1903               	skipnz
  2996  07EE  2E52               	goto	l3212
  2997  07EF  3A07               	xorlw	4^3	; case 4
  2998  07F0  1903               	skipnz
  2999  07F1  2E95               	goto	l3236
  3000  07F2  3A01               	xorlw	5^4	; case 5
  3001  07F3  1903               	skipnz
  3002  07F4  2ED8               	goto	l3260
  3003  07F5  3A03               	xorlw	6^5	; case 6
  3004  07F6  1903               	skipnz
  3005  07F7  2F1B               	goto	l3284
  3006  07F8  3A01               	xorlw	7^6	; case 7
  3007  07F9  1903               	skipnz
  3008  07FA  2F5E               	goto	l3308
  3009  07FB  3A0F               	xorlw	8^7	; case 8
  3010  07FC  1903               	skipnz
  3011  07FD  2FA1               	goto	l3332
  3012  07FE  2FFF               	goto	l1126
  3013                           
  3014                           	line	385
  3015                           	
  3016  07FF                     l1090:	
  3017                           	line	386
  3018                           	
  3019  07FF                     l1126:	
  3020  07FF  0008               	return
  3021                           	opt stack 0
  3022                           GLOBAL	__end_of_uart_write
  3023  0800                     	__end_of_uart_write:
  3024 ;; =============== function _uart_write ends ============
  3025                           
  3026                           	signat	_uart_write,8312
  3027                           	global	_uart_read
  3028                           psect	text234,local,class=CODE,delta=2
  3029                           global __ptext234
  3030  03AB                     __ptext234:
  3031                           
  3032 ;; *************** function _uart_read *****************
  3033 ;; Defined at:
  3034 ;;		line 390 in file "C:\Users\Phang\Desktop\9.80\PR 27\Slave_Programmed UART_1\uart_io.c"
  3035 ;; Parameters:    Size  Location     Type
  3036 ;;  channel         1    wreg     unsigned char 
  3037 ;; Auto vars:     Size  Location     Type
  3038 ;;  channel         1    3[COMMON] unsigned char 
  3039 ;;  i               1    5[COMMON] unsigned char 
  3040 ;;  result          1    4[COMMON] unsigned char 
  3041 ;;  dummy_mask      1    2[COMMON] unsigned char 
  3042 ;; Return value:  Size  Location     Type
  3043 ;;                  1    wreg      unsigned char 
  3044 ;; Registers used:
  3045 ;;		wreg, fsr0l, fsr0h, status,2, status,0
  3046 ;; Tracked objects:
  3047 ;;		On entry : 0/0
  3048 ;;		On exit  : 0/0
  3049 ;;		Unchanged: 0/0
  3050 ;; Data sizes:     COMMON   BANK0   BANK1   BANK3   BANK2
  3051 ;;      Params:         0       0       0       0       0
  3052 ;;      Locals:         4       0       0       0       0
  3053 ;;      Temps:          2       0       0       0       0
  3054 ;;      Totals:         6       0       0       0       0
  3055 ;;Total ram usage:        6 bytes
  3056 ;; Hardware stack levels used:    1
  3057 ;; This function calls:
  3058 ;;		Nothing
  3059 ;; This function is called by:
  3060 ;;		_main
  3061 ;; This function uses a non-reentrant model
  3062 ;;
  3063                           psect	text234
  3064                           	file	"C:\Users\Phang\Desktop\9.80\PR 27\Slave_Programmed UART_1\uart_io.c"
  3065                           	line	390
  3066                           	global	__size_of_uart_read
  3067  0225                     	__size_of_uart_read	equ	__end_of_uart_read-_uart_read
  3068                           	
  3069  03AB                     _uart_read:	
  3070                           	opt	stack 7
  3071                           ; Regs used in _uart_read: [wreg-fsr0h+status,2+status,0]
  3072                           ;uart_read@channel stored from wreg
  3073                           	line	392
  3074  03AB  00F3               	movwf	(uart_read@channel)
  3075                           	
  3076  03AC                     l3002:	
  3077                           ;uart_io.c: 391: unsigned char i;
  3078                           ;uart_io.c: 392: unsigned char result=0;
  3079  03AC  1003               	clrc
  3080  03AD  3000               	movlw	0
  3081  03AE  1803               	btfsc	status,0
  3082  03AF  3001               	movlw	1
  3083  03B0  00F4               	movwf	(uart_read@result)
  3084                           	line	393
  3085                           ;uart_io.c: 393: unsigned char dummy_mask=0x00;
  3086  03B1  1003               	clrc
  3087  03B2  3000               	movlw	0
  3088  03B3  1803               	btfsc	status,0
  3089  03B4  3001               	movlw	1
  3090  03B5  00F2               	movwf	(uart_read@dummy_mask)
  3091                           	line	395
  3092                           ;uart_io.c: 395: switch(channel)
  3093  03B6  2DB3               	goto	l3160
  3094                           	line	397
  3095                           ;uart_io.c: 396: {
  3096                           ;uart_io.c: 397: case 1:
  3097                           	
  3098  03B7                     l1130:	
  3099                           	line	398
  3100                           ;uart_io.c: 398: while(RC3);
  3101  03B7  2BB8               	goto	l1131
  3102                           	
  3103  03B8                     l1132:	
  3104                           	
  3105  03B8                     l1131:	
  3106  03B8  1283               	bcf	status, 5	;RP0=0, select bank0
  3107  03B9  1303               	bcf	status, 6	;RP1=0, select bank0
  3108  03BA  1987               	btfsc	(59/8),(59)&7
  3109  03BB  2BBD               	goto	u2861
  3110  03BC  2BBE               	goto	u2860
  3111  03BD                     u2861:
  3112  03BD  2BB8               	goto	l1131
  3113  03BE                     u2860:
  3114  03BE  2BBF               	goto	l3004
  3115                           	
  3116  03BF                     l1133:	
  3117                           	line	399
  3118                           	
  3119  03BF                     l3004:	
  3120                           ;uart_io.c: 399: _delay((20000000/4)/9600-10);
  3121                           	opt asmopt_off
  3122  03BF  30A9               movlw	169
  3123  03C0  00F0               movwf	(??_uart_read+0)+0,f
  3124  03C1                     u3847:
  3125  03C1  0BF0               decfsz	(??_uart_read+0)+0,f
  3126  03C2  2BC1               	goto	u3847
  3127  03C3  2BC4               	nop2	;nop
  3128                           opt asmopt_on
  3129                           
  3130                           	line	400
  3131                           ;uart_io.c: 400: _delay((20000000/4)/9600/2);
  3132                           	opt asmopt_off
  3133  03C4  3056               movlw	86
  3134  03C5  00F0               movwf	(??_uart_read+0)+0,f
  3135  03C6                     u3857:
  3136  03C6  0BF0               decfsz	(??_uart_read+0)+0,f
  3137  03C7  2BC6               	goto	u3857
  3138  03C8  0064               	clrwdt
  3139                           opt asmopt_on
  3140                           
  3141                           	line	401
  3142                           	
  3143  03C9                     l3006:	
  3144                           ;uart_io.c: 401: for(i=1;i>0;i=i<<1)
  3145  03C9  01F5               	clrf	(uart_read@i)
  3146  03CA  1403               	bsf	status,0
  3147  03CB  0DF5               	rlf	(uart_read@i),f
  3148                           	
  3149  03CC                     l3008:	
  3150  03CC  08F5               	movf	(uart_read@i),f
  3151  03CD  1D03               	skipz
  3152  03CE  2BD0               	goto	u2871
  3153  03CF  2BD1               	goto	u2870
  3154  03D0                     u2871:
  3155  03D0  2BD3               	goto	l1134
  3156  03D1                     u2870:
  3157  03D1  2BF0               	goto	l3018
  3158                           	
  3159  03D2                     l3010:	
  3160  03D2  2BF0               	goto	l3018
  3161                           	line	402
  3162                           	
  3163  03D3                     l1134:	
  3164                           	line	403
  3165                           ;uart_io.c: 402: {
  3166                           ;uart_io.c: 403: if(RC3==1)
  3167  03D3  1283               	bcf	status, 5	;RP0=0, select bank0
  3168  03D4  1303               	bcf	status, 6	;RP1=0, select bank0
  3169  03D5  1D87               	btfss	(59/8),(59)&7
  3170  03D6  2BD8               	goto	u2881
  3171  03D7  2BD9               	goto	u2880
  3172  03D8                     u2881:
  3173  03D8  2BDF               	goto	l3014
  3174  03D9                     u2880:
  3175                           	line	405
  3176                           	
  3177  03D9                     l3012:	
  3178                           ;uart_io.c: 404: {
  3179                           ;uart_io.c: 405: result|=i;
  3180  03D9  0875               	movf	(uart_read@i),w
  3181  03DA  00F0               	movwf	(??_uart_read+0)+0
  3182  03DB  0870               	movf	(??_uart_read+0)+0,w
  3183  03DC  04F4               	iorwf	(uart_read@result),f
  3184                           	line	406
  3185                           ;uart_io.c: 406: }
  3186  03DD  2BDF               	goto	l3014
  3187                           	line	407
  3188                           	
  3189  03DE                     l1136:	
  3190  03DE  2BDF               	goto	l3014
  3191                           	line	410
  3192                           	
  3193  03DF                     l1137:	
  3194                           	line	411
  3195                           	
  3196  03DF                     l3014:	
  3197                           ;uart_io.c: 410: }
  3198                           ;uart_io.c: 411: _delay((20000000/4)/9600-20);
  3199                           	opt asmopt_off
  3200  03DF  30A6               movlw	166
  3201  03E0  00F0               movwf	(??_uart_read+0)+0,f
  3202  03E1                     u3867:
  3203  03E1  0BF0               decfsz	(??_uart_read+0)+0,f
  3204  03E2  2BE1               	goto	u3867
  3205  03E3  0064               	clrwdt
  3206                           opt asmopt_on
  3207                           
  3208                           	line	401
  3209                           	
  3210  03E4                     l3016:	
  3211  03E4  0875               	movf	(uart_read@i),w
  3212  03E5  00F0               	movwf	(??_uart_read+0)+0
  3213  03E6  0770               	addwf	(??_uart_read+0)+0,w
  3214  03E7  00F1               	movwf	(??_uart_read+1)+0
  3215  03E8  0871               	movf	(??_uart_read+1)+0,w
  3216  03E9  00F5               	movwf	(uart_read@i)
  3217  03EA  08F5               	movf	(uart_read@i),f
  3218  03EB  1D03               	skipz
  3219  03EC  2BEE               	goto	u2891
  3220  03ED  2BEF               	goto	u2890
  3221  03EE                     u2891:
  3222  03EE  2BD3               	goto	l1134
  3223  03EF                     u2890:
  3224  03EF  2BF0               	goto	l3018
  3225                           	
  3226  03F0                     l1135:	
  3227                           	line	413
  3228                           	
  3229  03F0                     l3018:	
  3230                           ;uart_io.c: 412: }
  3231                           ;uart_io.c: 413: _delay((20000000/4)/9600/2);
  3232                           	opt asmopt_off
  3233  03F0  3056               movlw	86
  3234  03F1  00F0               movwf	(??_uart_read+0)+0,f
  3235  03F2                     u3877:
  3236  03F2  0BF0               decfsz	(??_uart_read+0)+0,f
  3237  03F3  2BF2               	goto	u3877
  3238  03F4  0064               	clrwdt
  3239                           opt asmopt_on
  3240                           
  3241                           	line	414
  3242                           ;uart_io.c: 414: break;
  3243  03F5  2DCD               	goto	l3162
  3244                           	line	415
  3245                           ;uart_io.c: 415: case 2:
  3246                           	
  3247  03F6                     l1139:	
  3248                           	line	416
  3249                           ;uart_io.c: 416: while(RC1);
  3250  03F6  2BF7               	goto	l1140
  3251                           	
  3252  03F7                     l1141:	
  3253                           	
  3254  03F7                     l1140:	
  3255  03F7  1283               	bcf	status, 5	;RP0=0, select bank0
  3256  03F8  1303               	bcf	status, 6	;RP1=0, select bank0
  3257  03F9  1887               	btfsc	(57/8),(57)&7
  3258  03FA  2BFC               	goto	u2901
  3259  03FB  2BFD               	goto	u2900
  3260  03FC                     u2901:
  3261  03FC  2BF7               	goto	l1140
  3262  03FD                     u2900:
  3263  03FD  2BFE               	goto	l3020
  3264                           	
  3265  03FE                     l1142:	
  3266                           	line	417
  3267                           	
  3268  03FE                     l3020:	
  3269                           ;uart_io.c: 417: _delay((20000000/4)/9600-10);
  3270                           	opt asmopt_off
  3271  03FE  30A9               movlw	169
  3272  03FF  00F0               movwf	(??_uart_read+0)+0,f
  3273  0400                     u3887:
  3274  0400  0BF0               decfsz	(??_uart_read+0)+0,f
  3275  0401  2C00               	goto	u3887
  3276  0402  2C03               	nop2	;nop
  3277                           opt asmopt_on
  3278                           
  3279                           	line	418
  3280                           ;uart_io.c: 418: _delay((20000000/4)/9600/2);
  3281                           	opt asmopt_off
  3282  0403  3056               movlw	86
  3283  0404  00F0               movwf	(??_uart_read+0)+0,f
  3284  0405                     u3897:
  3285  0405  0BF0               decfsz	(??_uart_read+0)+0,f
  3286  0406  2C05               	goto	u3897
  3287  0407  0064               	clrwdt
  3288                           opt asmopt_on
  3289                           
  3290                           	line	419
  3291                           	
  3292  0408                     l3022:	
  3293                           ;uart_io.c: 419: for(i=1;i>0;i=i<<1)
  3294  0408  01F5               	clrf	(uart_read@i)
  3295  0409  1403               	bsf	status,0
  3296  040A  0DF5               	rlf	(uart_read@i),f
  3297                           	
  3298  040B                     l3024:	
  3299  040B  08F5               	movf	(uart_read@i),f
  3300  040C  1D03               	skipz
  3301  040D  2C0F               	goto	u2911
  3302  040E  2C10               	goto	u2910
  3303  040F                     u2911:
  3304  040F  2C12               	goto	l1143
  3305  0410                     u2910:
  3306  0410  2C2F               	goto	l3034
  3307                           	
  3308  0411                     l3026:	
  3309  0411  2C2F               	goto	l3034
  3310                           	line	420
  3311                           	
  3312  0412                     l1143:	
  3313                           	line	421
  3314                           ;uart_io.c: 420: {
  3315                           ;uart_io.c: 421: if(RC1==1)
  3316  0412  1283               	bcf	status, 5	;RP0=0, select bank0
  3317  0413  1303               	bcf	status, 6	;RP1=0, select bank0
  3318  0414  1C87               	btfss	(57/8),(57)&7
  3319  0415  2C17               	goto	u2921
  3320  0416  2C18               	goto	u2920
  3321  0417                     u2921:
  3322  0417  2C1E               	goto	l3030
  3323  0418                     u2920:
  3324                           	line	423
  3325                           	
  3326  0418                     l3028:	
  3327                           ;uart_io.c: 422: {
  3328                           ;uart_io.c: 423: result|=i;
  3329  0418  0875               	movf	(uart_read@i),w
  3330  0419  00F0               	movwf	(??_uart_read+0)+0
  3331  041A  0870               	movf	(??_uart_read+0)+0,w
  3332  041B  04F4               	iorwf	(uart_read@result),f
  3333                           	line	424
  3334                           ;uart_io.c: 424: }
  3335  041C  2C1E               	goto	l3030
  3336                           	line	425
  3337                           	
  3338  041D                     l1145:	
  3339  041D  2C1E               	goto	l3030
  3340                           	line	428
  3341                           	
  3342  041E                     l1146:	
  3343                           	line	429
  3344                           	
  3345  041E                     l3030:	
  3346                           ;uart_io.c: 428: }
  3347                           ;uart_io.c: 429: _delay((20000000/4)/9600-20);
  3348                           	opt asmopt_off
  3349  041E  30A6               movlw	166
  3350  041F  00F0               movwf	(??_uart_read+0)+0,f
  3351  0420                     u3907:
  3352  0420  0BF0               decfsz	(??_uart_read+0)+0,f
  3353  0421  2C20               	goto	u3907
  3354  0422  0064               	clrwdt
  3355                           opt asmopt_on
  3356                           
  3357                           	line	419
  3358                           	
  3359  0423                     l3032:	
  3360  0423  0875               	movf	(uart_read@i),w
  3361  0424  00F0               	movwf	(??_uart_read+0)+0
  3362  0425  0770               	addwf	(??_uart_read+0)+0,w
  3363  0426  00F1               	movwf	(??_uart_read+1)+0
  3364  0427  0871               	movf	(??_uart_read+1)+0,w
  3365  0428  00F5               	movwf	(uart_read@i)
  3366  0429  08F5               	movf	(uart_read@i),f
  3367  042A  1D03               	skipz
  3368  042B  2C2D               	goto	u2931
  3369  042C  2C2E               	goto	u2930
  3370  042D                     u2931:
  3371  042D  2C12               	goto	l1143
  3372  042E                     u2930:
  3373  042E  2C2F               	goto	l3034
  3374                           	
  3375  042F                     l1144:	
  3376                           	line	431
  3377                           	
  3378  042F                     l3034:	
  3379                           ;uart_io.c: 430: }
  3380                           ;uart_io.c: 431: _delay((20000000/4)/9600/2);
  3381                           	opt asmopt_off
  3382  042F  3056               movlw	86
  3383  0430  00F0               movwf	(??_uart_read+0)+0,f
  3384  0431                     u3917:
  3385  0431  0BF0               decfsz	(??_uart_read+0)+0,f
  3386  0432  2C31               	goto	u3917
  3387  0433  0064               	clrwdt
  3388                           opt asmopt_on
  3389                           
  3390                           	line	432
  3391                           ;uart_io.c: 432: break;
  3392  0434  2DCD               	goto	l3162
  3393                           	line	433
  3394                           ;uart_io.c: 433: case 3:
  3395                           	
  3396  0435                     l1147:	
  3397                           	line	434
  3398                           	
  3399  0435                     l3036:	
  3400                           ;uart_io.c: 434: result=0;
  3401  0435  1003               	clrc
  3402  0436  3000               	movlw	0
  3403  0437  1803               	btfsc	status,0
  3404  0438  3001               	movlw	1
  3405  0439  00F4               	movwf	(uart_read@result)
  3406                           	line	435
  3407                           ;uart_io.c: 435: while(dummy_byte);
  3408  043A  2C3C               	goto	l3038
  3409                           	
  3410  043B                     l1149:	
  3411  043B  2C3C               	goto	l3038
  3412                           	
  3413  043C                     l1148:	
  3414                           	
  3415  043C                     l3038:	
  3416  043C  08FD               	movf	(_dummy_byte),f
  3417  043D  1D03               	skipz
  3418  043E  2C40               	goto	u2941
  3419  043F  2C41               	goto	u2940
  3420  0440                     u2941:
  3421  0440  2C3C               	goto	l3038
  3422  0441                     u2940:
  3423  0441  2C42               	goto	l3040
  3424                           	
  3425  0442                     l1150:	
  3426                           	line	436
  3427                           	
  3428  0442                     l3040:	
  3429                           ;uart_io.c: 436: _delay((20000000/4)/9600-10);
  3430                           	opt asmopt_off
  3431  0442  30A9               movlw	169
  3432  0443  00F0               movwf	(??_uart_read+0)+0,f
  3433  0444                     u3927:
  3434  0444  0BF0               decfsz	(??_uart_read+0)+0,f
  3435  0445  2C44               	goto	u3927
  3436  0446  2C47               	nop2	;nop
  3437                           opt asmopt_on
  3438                           
  3439                           	line	437
  3440                           ;uart_io.c: 437: _delay((20000000/4)/9600/2);
  3441                           	opt asmopt_off
  3442  0447  3056               movlw	86
  3443  0448  00F0               movwf	(??_uart_read+0)+0,f
  3444  0449                     u3937:
  3445  0449  0BF0               decfsz	(??_uart_read+0)+0,f
  3446  044A  2C49               	goto	u3937
  3447  044B  0064               	clrwdt
  3448                           opt asmopt_on
  3449                           
  3450                           	line	438
  3451                           	
  3452  044C                     l3042:	
  3453                           ;uart_io.c: 438: for(i=1;i>0;i=i<<1)
  3454  044C  01F5               	clrf	(uart_read@i)
  3455  044D  1403               	bsf	status,0
  3456  044E  0DF5               	rlf	(uart_read@i),f
  3457                           	
  3458  044F                     l3044:	
  3459  044F  08F5               	movf	(uart_read@i),f
  3460  0450  1D03               	skipz
  3461  0451  2C53               	goto	u2951
  3462  0452  2C54               	goto	u2950
  3463  0453                     u2951:
  3464  0453  2C56               	goto	l3048
  3465  0454                     u2950:
  3466  0454  2C71               	goto	l3056
  3467                           	
  3468  0455                     l3046:	
  3469  0455  2C71               	goto	l3056
  3470                           	line	439
  3471                           	
  3472  0456                     l1151:	
  3473                           	line	440
  3474                           	
  3475  0456                     l3048:	
  3476                           ;uart_io.c: 439: {
  3477                           ;uart_io.c: 440: if(dummy_byte)
  3478  0456  087D               	movf	(_dummy_byte),w
  3479  0457  1D03               	skipz
  3480  0458  2C5A               	goto	u2960
  3481  0459  2C60               	goto	l3052
  3482  045A                     u2960:
  3483                           	line	442
  3484                           	
  3485  045A                     l3050:	
  3486                           ;uart_io.c: 441: {
  3487                           ;uart_io.c: 442: result|=i;
  3488  045A  0875               	movf	(uart_read@i),w
  3489  045B  00F0               	movwf	(??_uart_read+0)+0
  3490  045C  0870               	movf	(??_uart_read+0)+0,w
  3491  045D  04F4               	iorwf	(uart_read@result),f
  3492                           	line	443
  3493                           ;uart_io.c: 443: }
  3494  045E  2C60               	goto	l3052
  3495                           	line	444
  3496                           	
  3497  045F                     l1153:	
  3498  045F  2C60               	goto	l3052
  3499                           	line	447
  3500                           	
  3501  0460                     l1154:	
  3502                           	line	448
  3503                           	
  3504  0460                     l3052:	
  3505                           ;uart_io.c: 447: }
  3506                           ;uart_io.c: 448: _delay((20000000/4)/9600-20);
  3507                           	opt asmopt_off
  3508  0460  30A6               movlw	166
  3509  0461  00F0               movwf	(??_uart_read+0)+0,f
  3510  0462                     u3947:
  3511  0462  0BF0               decfsz	(??_uart_read+0)+0,f
  3512  0463  2C62               	goto	u3947
  3513  0464  0064               	clrwdt
  3514                           opt asmopt_on
  3515                           
  3516                           	line	438
  3517                           	
  3518  0465                     l3054:	
  3519  0465  0875               	movf	(uart_read@i),w
  3520  0466  00F0               	movwf	(??_uart_read+0)+0
  3521  0467  0770               	addwf	(??_uart_read+0)+0,w
  3522  0468  00F1               	movwf	(??_uart_read+1)+0
  3523  0469  0871               	movf	(??_uart_read+1)+0,w
  3524  046A  00F5               	movwf	(uart_read@i)
  3525  046B  08F5               	movf	(uart_read@i),f
  3526  046C  1D03               	skipz
  3527  046D  2C6F               	goto	u2971
  3528  046E  2C70               	goto	u2970
  3529  046F                     u2971:
  3530  046F  2C56               	goto	l3048
  3531  0470                     u2970:
  3532  0470  2C71               	goto	l3056
  3533                           	
  3534  0471                     l1152:	
  3535                           	line	450
  3536                           	
  3537  0471                     l3056:	
  3538                           ;uart_io.c: 449: }
  3539                           ;uart_io.c: 450: _delay((20000000/4)/9600/2);
  3540                           	opt asmopt_off
  3541  0471  3056               movlw	86
  3542  0472  00F0               movwf	(??_uart_read+0)+0,f
  3543  0473                     u3957:
  3544  0473  0BF0               decfsz	(??_uart_read+0)+0,f
  3545  0474  2C73               	goto	u3957
  3546  0475  0064               	clrwdt
  3547                           opt asmopt_on
  3548                           
  3549                           	line	451
  3550                           ;uart_io.c: 451: break;
  3551  0476  2DCD               	goto	l3162
  3552                           	line	452
  3553                           ;uart_io.c: 452: case 4:
  3554                           	
  3555  0477                     l1155:	
  3556                           	line	453
  3557                           ;uart_io.c: 453: while(dummy_byte);
  3558  0477  2C79               	goto	l3058
  3559                           	
  3560  0478                     l1157:	
  3561  0478  2C79               	goto	l3058
  3562                           	
  3563  0479                     l1156:	
  3564                           	
  3565  0479                     l3058:	
  3566  0479  08FD               	movf	(_dummy_byte),f
  3567  047A  1D03               	skipz
  3568  047B  2C7D               	goto	u2981
  3569  047C  2C7E               	goto	u2980
  3570  047D                     u2981:
  3571  047D  2C79               	goto	l3058
  3572  047E                     u2980:
  3573  047E  2C7F               	goto	l3060
  3574                           	
  3575  047F                     l1158:	
  3576                           	line	454
  3577                           	
  3578  047F                     l3060:	
  3579                           ;uart_io.c: 454: _delay((20000000/4)/9600-10);
  3580                           	opt asmopt_off
  3581  047F  30A9               movlw	169
  3582  0480  00F0               movwf	(??_uart_read+0)+0,f
  3583  0481                     u3967:
  3584  0481  0BF0               decfsz	(??_uart_read+0)+0,f
  3585  0482  2C81               	goto	u3967
  3586  0483  2C84               	nop2	;nop
  3587                           opt asmopt_on
  3588                           
  3589                           	line	455
  3590                           ;uart_io.c: 455: _delay((20000000/4)/9600/2);
  3591                           	opt asmopt_off
  3592  0484  3056               movlw	86
  3593  0485  00F0               movwf	(??_uart_read+0)+0,f
  3594  0486                     u3977:
  3595  0486  0BF0               decfsz	(??_uart_read+0)+0,f
  3596  0487  2C86               	goto	u3977
  3597  0488  0064               	clrwdt
  3598                           opt asmopt_on
  3599                           
  3600                           	line	456
  3601                           	
  3602  0489                     l3062:	
  3603                           ;uart_io.c: 456: for(i=1;i>0;i=i<<1)
  3604  0489  01F5               	clrf	(uart_read@i)
  3605  048A  1403               	bsf	status,0
  3606  048B  0DF5               	rlf	(uart_read@i),f
  3607                           	
  3608  048C                     l3064:	
  3609  048C  08F5               	movf	(uart_read@i),f
  3610  048D  1D03               	skipz
  3611  048E  2C90               	goto	u2991
  3612  048F  2C91               	goto	u2990
  3613  0490                     u2991:
  3614  0490  2C93               	goto	l3068
  3615  0491                     u2990:
  3616  0491  2CB0               	goto	l3076
  3617                           	
  3618  0492                     l3066:	
  3619  0492  2CB0               	goto	l3076
  3620                           	line	457
  3621                           	
  3622  0493                     l1159:	
  3623                           	line	458
  3624                           	
  3625  0493                     l3068:	
  3626                           ;uart_io.c: 457: {
  3627                           ;uart_io.c: 458: if(dummy_byte==1)
  3628  0493  087D               	movf	(_dummy_byte),w
  3629  0494  3A01               	xorlw	01h
  3630  0495  1D03               	skipz
  3631  0496  2C98               	goto	u3001
  3632  0497  2C99               	goto	u3000
  3633  0498                     u3001:
  3634  0498  2C9F               	goto	l3072
  3635  0499                     u3000:
  3636                           	line	460
  3637                           	
  3638  0499                     l3070:	
  3639                           ;uart_io.c: 459: {
  3640                           ;uart_io.c: 460: result|=i;
  3641  0499  0875               	movf	(uart_read@i),w
  3642  049A  00F0               	movwf	(??_uart_read+0)+0
  3643  049B  0870               	movf	(??_uart_read+0)+0,w
  3644  049C  04F4               	iorwf	(uart_read@result),f
  3645                           	line	461
  3646                           ;uart_io.c: 461: }
  3647  049D  2C9F               	goto	l3072
  3648                           	line	462
  3649                           	
  3650  049E                     l1161:	
  3651  049E  2C9F               	goto	l3072
  3652                           	line	465
  3653                           	
  3654  049F                     l1162:	
  3655                           	line	466
  3656                           	
  3657  049F                     l3072:	
  3658                           ;uart_io.c: 465: }
  3659                           ;uart_io.c: 466: _delay((20000000/4)/9600-20);
  3660                           	opt asmopt_off
  3661  049F  30A6               movlw	166
  3662  04A0  00F0               movwf	(??_uart_read+0)+0,f
  3663  04A1                     u3987:
  3664  04A1  0BF0               decfsz	(??_uart_read+0)+0,f
  3665  04A2  2CA1               	goto	u3987
  3666  04A3  0064               	clrwdt
  3667                           opt asmopt_on
  3668                           
  3669                           	line	456
  3670                           	
  3671  04A4                     l3074:	
  3672  04A4  0875               	movf	(uart_read@i),w
  3673  04A5  00F0               	movwf	(??_uart_read+0)+0
  3674  04A6  0770               	addwf	(??_uart_read+0)+0,w
  3675  04A7  00F1               	movwf	(??_uart_read+1)+0
  3676  04A8  0871               	movf	(??_uart_read+1)+0,w
  3677  04A9  00F5               	movwf	(uart_read@i)
  3678  04AA  08F5               	movf	(uart_read@i),f
  3679  04AB  1D03               	skipz
  3680  04AC  2CAE               	goto	u3011
  3681  04AD  2CAF               	goto	u3010
  3682  04AE                     u3011:
  3683  04AE  2C93               	goto	l3068
  3684  04AF                     u3010:
  3685  04AF  2CB0               	goto	l3076
  3686                           	
  3687  04B0                     l1160:	
  3688                           	line	468
  3689                           	
  3690  04B0                     l3076:	
  3691                           ;uart_io.c: 467: }
  3692                           ;uart_io.c: 468: _delay((20000000/4)/9600/2);
  3693                           	opt asmopt_off
  3694  04B0  3056               movlw	86
  3695  04B1  00F0               movwf	(??_uart_read+0)+0,f
  3696  04B2                     u3997:
  3697  04B2  0BF0               decfsz	(??_uart_read+0)+0,f
  3698  04B3  2CB2               	goto	u3997
  3699  04B4  0064               	clrwdt
  3700                           opt asmopt_on
  3701                           
  3702                           	line	469
  3703                           ;uart_io.c: 469: break;
  3704  04B5  2DCD               	goto	l3162
  3705                           	line	470
  3706                           ;uart_io.c: 470: case 5:
  3707                           	
  3708  04B6                     l1163:	
  3709                           	line	471
  3710                           ;uart_io.c: 471: while(dummy_byte);
  3711  04B6  2CB8               	goto	l3078
  3712                           	
  3713  04B7                     l1165:	
  3714  04B7  2CB8               	goto	l3078
  3715                           	
  3716  04B8                     l1164:	
  3717                           	
  3718  04B8                     l3078:	
  3719  04B8  08FD               	movf	(_dummy_byte),f
  3720  04B9  1D03               	skipz
  3721  04BA  2CBC               	goto	u3021
  3722  04BB  2CBD               	goto	u3020
  3723  04BC                     u3021:
  3724  04BC  2CB8               	goto	l3078
  3725  04BD                     u3020:
  3726  04BD  2CBE               	goto	l3080
  3727                           	
  3728  04BE                     l1166:	
  3729                           	line	472
  3730                           	
  3731  04BE                     l3080:	
  3732                           ;uart_io.c: 472: _delay((20000000/4)/9600-10);
  3733                           	opt asmopt_off
  3734  04BE  30A9               movlw	169
  3735  04BF  00F0               movwf	(??_uart_read+0)+0,f
  3736  04C0                     u4007:
  3737  04C0  0BF0               decfsz	(??_uart_read+0)+0,f
  3738  04C1  2CC0               	goto	u4007
  3739  04C2  2CC3               	nop2	;nop
  3740                           opt asmopt_on
  3741                           
  3742                           	line	473
  3743                           ;uart_io.c: 473: _delay((20000000/4)/9600/2);
  3744                           	opt asmopt_off
  3745  04C3  3056               movlw	86
  3746  04C4  00F0               movwf	(??_uart_read+0)+0,f
  3747  04C5                     u4017:
  3748  04C5  0BF0               decfsz	(??_uart_read+0)+0,f
  3749  04C6  2CC5               	goto	u4017
  3750  04C7  0064               	clrwdt
  3751                           opt asmopt_on
  3752                           
  3753                           	line	474
  3754                           	
  3755  04C8                     l3082:	
  3756                           ;uart_io.c: 474: for(i=1;i>0;i=i<<1)
  3757  04C8  01F5               	clrf	(uart_read@i)
  3758  04C9  1403               	bsf	status,0
  3759  04CA  0DF5               	rlf	(uart_read@i),f
  3760                           	
  3761  04CB                     l3084:	
  3762  04CB  08F5               	movf	(uart_read@i),f
  3763  04CC  1D03               	skipz
  3764  04CD  2CCF               	goto	u3031
  3765  04CE  2CD0               	goto	u3030
  3766  04CF                     u3031:
  3767  04CF  2CD2               	goto	l3088
  3768  04D0                     u3030:
  3769  04D0  2CEF               	goto	l3096
  3770                           	
  3771  04D1                     l3086:	
  3772  04D1  2CEF               	goto	l3096
  3773                           	line	475
  3774                           	
  3775  04D2                     l1167:	
  3776                           	line	476
  3777                           	
  3778  04D2                     l3088:	
  3779                           ;uart_io.c: 475: {
  3780                           ;uart_io.c: 476: if(dummy_byte==1)
  3781  04D2  087D               	movf	(_dummy_byte),w
  3782  04D3  3A01               	xorlw	01h
  3783  04D4  1D03               	skipz
  3784  04D5  2CD7               	goto	u3041
  3785  04D6  2CD8               	goto	u3040
  3786  04D7                     u3041:
  3787  04D7  2CDE               	goto	l3092
  3788  04D8                     u3040:
  3789                           	line	478
  3790                           	
  3791  04D8                     l3090:	
  3792                           ;uart_io.c: 477: {
  3793                           ;uart_io.c: 478: result|=i;
  3794  04D8  0875               	movf	(uart_read@i),w
  3795  04D9  00F0               	movwf	(??_uart_read+0)+0
  3796  04DA  0870               	movf	(??_uart_read+0)+0,w
  3797  04DB  04F4               	iorwf	(uart_read@result),f
  3798                           	line	479
  3799                           ;uart_io.c: 479: }
  3800  04DC  2CDE               	goto	l3092
  3801                           	line	480
  3802                           	
  3803  04DD                     l1169:	
  3804  04DD  2CDE               	goto	l3092
  3805                           	line	483
  3806                           	
  3807  04DE                     l1170:	
  3808                           	line	484
  3809                           	
  3810  04DE                     l3092:	
  3811                           ;uart_io.c: 483: }
  3812                           ;uart_io.c: 484: _delay((20000000/4)/9600-20);
  3813                           	opt asmopt_off
  3814  04DE  30A6               movlw	166
  3815  04DF  00F0               movwf	(??_uart_read+0)+0,f
  3816  04E0                     u4027:
  3817  04E0  0BF0               decfsz	(??_uart_read+0)+0,f
  3818  04E1  2CE0               	goto	u4027
  3819  04E2  0064               	clrwdt
  3820                           opt asmopt_on
  3821                           
  3822                           	line	474
  3823                           	
  3824  04E3                     l3094:	
  3825  04E3  0875               	movf	(uart_read@i),w
  3826  04E4  00F0               	movwf	(??_uart_read+0)+0
  3827  04E5  0770               	addwf	(??_uart_read+0)+0,w
  3828  04E6  00F1               	movwf	(??_uart_read+1)+0
  3829  04E7  0871               	movf	(??_uart_read+1)+0,w
  3830  04E8  00F5               	movwf	(uart_read@i)
  3831  04E9  08F5               	movf	(uart_read@i),f
  3832  04EA  1D03               	skipz
  3833  04EB  2CED               	goto	u3051
  3834  04EC  2CEE               	goto	u3050
  3835  04ED                     u3051:
  3836  04ED  2CD2               	goto	l3088
  3837  04EE                     u3050:
  3838  04EE  2CEF               	goto	l3096
  3839                           	
  3840  04EF                     l1168:	
  3841                           	line	486
  3842                           	
  3843  04EF                     l3096:	
  3844                           ;uart_io.c: 485: }
  3845                           ;uart_io.c: 486: _delay((20000000/4)/9600/2);
  3846                           	opt asmopt_off
  3847  04EF  3056               movlw	86
  3848  04F0  00F0               movwf	(??_uart_read+0)+0,f
  3849  04F1                     u4037:
  3850  04F1  0BF0               decfsz	(??_uart_read+0)+0,f
  3851  04F2  2CF1               	goto	u4037
  3852  04F3  0064               	clrwdt
  3853                           opt asmopt_on
  3854                           
  3855                           	line	487
  3856                           ;uart_io.c: 487: break;
  3857  04F4  2DCD               	goto	l3162
  3858                           	line	488
  3859                           ;uart_io.c: 488: case 6:
  3860                           	
  3861  04F5                     l1171:	
  3862                           	line	489
  3863                           ;uart_io.c: 489: while(dummy_byte);
  3864  04F5  2CF7               	goto	l3098
  3865                           	
  3866  04F6                     l1173:	
  3867  04F6  2CF7               	goto	l3098
  3868                           	
  3869  04F7                     l1172:	
  3870                           	
  3871  04F7                     l3098:	
  3872  04F7  08FD               	movf	(_dummy_byte),f
  3873  04F8  1D03               	skipz
  3874  04F9  2CFB               	goto	u3061
  3875  04FA  2CFC               	goto	u3060
  3876  04FB                     u3061:
  3877  04FB  2CF7               	goto	l3098
  3878  04FC                     u3060:
  3879  04FC  2CFD               	goto	l3100
  3880                           	
  3881  04FD                     l1174:	
  3882                           	line	490
  3883                           	
  3884  04FD                     l3100:	
  3885                           ;uart_io.c: 490: _delay((20000000/4)/9600-10);
  3886                           	opt asmopt_off
  3887  04FD  30A9               movlw	169
  3888  04FE  00F0               movwf	(??_uart_read+0)+0,f
  3889  04FF                     u4047:
  3890  04FF  0BF0               decfsz	(??_uart_read+0)+0,f
  3891  0500  2CFF               	goto	u4047
  3892  0501  2D02               	nop2	;nop
  3893                           opt asmopt_on
  3894                           
  3895                           	line	491
  3896                           ;uart_io.c: 491: _delay((20000000/4)/9600/2);
  3897                           	opt asmopt_off
  3898  0502  3056               movlw	86
  3899  0503  00F0               movwf	(??_uart_read+0)+0,f
  3900  0504                     u4057:
  3901  0504  0BF0               decfsz	(??_uart_read+0)+0,f
  3902  0505  2D04               	goto	u4057
  3903  0506  0064               	clrwdt
  3904                           opt asmopt_on
  3905                           
  3906                           	line	492
  3907                           	
  3908  0507                     l3102:	
  3909                           ;uart_io.c: 492: for(i=1;i>0;i=i<<1)
  3910  0507  01F5               	clrf	(uart_read@i)
  3911  0508  1403               	bsf	status,0
  3912  0509  0DF5               	rlf	(uart_read@i),f
  3913                           	
  3914  050A                     l3104:	
  3915  050A  08F5               	movf	(uart_read@i),f
  3916  050B  1D03               	skipz
  3917  050C  2D0E               	goto	u3071
  3918  050D  2D0F               	goto	u3070
  3919  050E                     u3071:
  3920  050E  2D11               	goto	l3108
  3921  050F                     u3070:
  3922  050F  2D2E               	goto	l3116
  3923                           	
  3924  0510                     l3106:	
  3925  0510  2D2E               	goto	l3116
  3926                           	line	493
  3927                           	
  3928  0511                     l1175:	
  3929                           	line	494
  3930                           	
  3931  0511                     l3108:	
  3932                           ;uart_io.c: 493: {
  3933                           ;uart_io.c: 494: if(dummy_byte==1)
  3934  0511  087D               	movf	(_dummy_byte),w
  3935  0512  3A01               	xorlw	01h
  3936  0513  1D03               	skipz
  3937  0514  2D16               	goto	u3081
  3938  0515  2D17               	goto	u3080
  3939  0516                     u3081:
  3940  0516  2D1D               	goto	l3112
  3941  0517                     u3080:
  3942                           	line	496
  3943                           	
  3944  0517                     l3110:	
  3945                           ;uart_io.c: 495: {
  3946                           ;uart_io.c: 496: result|=i;
  3947  0517  0875               	movf	(uart_read@i),w
  3948  0518  00F0               	movwf	(??_uart_read+0)+0
  3949  0519  0870               	movf	(??_uart_read+0)+0,w
  3950  051A  04F4               	iorwf	(uart_read@result),f
  3951                           	line	497
  3952                           ;uart_io.c: 497: }
  3953  051B  2D1D               	goto	l3112
  3954                           	line	498
  3955                           	
  3956  051C                     l1177:	
  3957  051C  2D1D               	goto	l3112
  3958                           	line	501
  3959                           	
  3960  051D                     l1178:	
  3961                           	line	502
  3962                           	
  3963  051D                     l3112:	
  3964                           ;uart_io.c: 501: }
  3965                           ;uart_io.c: 502: _delay((20000000/4)/9600-20);
  3966                           	opt asmopt_off
  3967  051D  30A6               movlw	166
  3968  051E  00F0               movwf	(??_uart_read+0)+0,f
  3969  051F                     u4067:
  3970  051F  0BF0               decfsz	(??_uart_read+0)+0,f
  3971  0520  2D1F               	goto	u4067
  3972  0521  0064               	clrwdt
  3973                           opt asmopt_on
  3974                           
  3975                           	line	492
  3976                           	
  3977  0522                     l3114:	
  3978  0522  0875               	movf	(uart_read@i),w
  3979  0523  00F0               	movwf	(??_uart_read+0)+0
  3980  0524  0770               	addwf	(??_uart_read+0)+0,w
  3981  0525  00F1               	movwf	(??_uart_read+1)+0
  3982  0526  0871               	movf	(??_uart_read+1)+0,w
  3983  0527  00F5               	movwf	(uart_read@i)
  3984  0528  08F5               	movf	(uart_read@i),f
  3985  0529  1D03               	skipz
  3986  052A  2D2C               	goto	u3091
  3987  052B  2D2D               	goto	u3090
  3988  052C                     u3091:
  3989  052C  2D11               	goto	l3108
  3990  052D                     u3090:
  3991  052D  2D2E               	goto	l3116
  3992                           	
  3993  052E                     l1176:	
  3994                           	line	504
  3995                           	
  3996  052E                     l3116:	
  3997                           ;uart_io.c: 503: }
  3998                           ;uart_io.c: 504: _delay((20000000/4)/9600/2);
  3999                           	opt asmopt_off
  4000  052E  3056               movlw	86
  4001  052F  00F0               movwf	(??_uart_read+0)+0,f
  4002  0530                     u4077:
  4003  0530  0BF0               decfsz	(??_uart_read+0)+0,f
  4004  0531  2D30               	goto	u4077
  4005  0532  0064               	clrwdt
  4006                           opt asmopt_on
  4007                           
  4008                           	line	505
  4009                           ;uart_io.c: 505: break;
  4010  0533  2DCD               	goto	l3162
  4011                           	line	506
  4012                           ;uart_io.c: 506: case 7:
  4013                           	
  4014  0534                     l1179:	
  4015                           	line	507
  4016                           ;uart_io.c: 507: while(dummy_byte);
  4017  0534  2D36               	goto	l3118
  4018                           	
  4019  0535                     l1181:	
  4020  0535  2D36               	goto	l3118
  4021                           	
  4022  0536                     l1180:	
  4023                           	
  4024  0536                     l3118:	
  4025  0536  08FD               	movf	(_dummy_byte),f
  4026  0537  1D03               	skipz
  4027  0538  2D3A               	goto	u3101
  4028  0539  2D3B               	goto	u3100
  4029  053A                     u3101:
  4030  053A  2D36               	goto	l3118
  4031  053B                     u3100:
  4032  053B  2D3C               	goto	l3120
  4033                           	
  4034  053C                     l1182:	
  4035                           	line	508
  4036                           	
  4037  053C                     l3120:	
  4038                           ;uart_io.c: 508: _delay((20000000/4)/9600-10);
  4039                           	opt asmopt_off
  4040  053C  30A9               movlw	169
  4041  053D  00F0               movwf	(??_uart_read+0)+0,f
  4042  053E                     u4087:
  4043  053E  0BF0               decfsz	(??_uart_read+0)+0,f
  4044  053F  2D3E               	goto	u4087
  4045  0540  2D41               	nop2	;nop
  4046                           opt asmopt_on
  4047                           
  4048                           	line	509
  4049                           ;uart_io.c: 509: _delay((20000000/4)/9600/2);
  4050                           	opt asmopt_off
  4051  0541  3056               movlw	86
  4052  0542  00F0               movwf	(??_uart_read+0)+0,f
  4053  0543                     u4097:
  4054  0543  0BF0               decfsz	(??_uart_read+0)+0,f
  4055  0544  2D43               	goto	u4097
  4056  0545  0064               	clrwdt
  4057                           opt asmopt_on
  4058                           
  4059                           	line	510
  4060                           	
  4061  0546                     l3122:	
  4062                           ;uart_io.c: 510: for(i=1;i>0;i=i<<1)
  4063  0546  01F5               	clrf	(uart_read@i)
  4064  0547  1403               	bsf	status,0
  4065  0548  0DF5               	rlf	(uart_read@i),f
  4066                           	
  4067  0549                     l3124:	
  4068  0549  08F5               	movf	(uart_read@i),f
  4069  054A  1D03               	skipz
  4070  054B  2D4D               	goto	u3111
  4071  054C  2D4E               	goto	u3110
  4072  054D                     u3111:
  4073  054D  2D50               	goto	l3128
  4074  054E                     u3110:
  4075  054E  2D6D               	goto	l3136
  4076                           	
  4077  054F                     l3126:	
  4078  054F  2D6D               	goto	l3136
  4079                           	line	511
  4080                           	
  4081  0550                     l1183:	
  4082                           	line	512
  4083                           	
  4084  0550                     l3128:	
  4085                           ;uart_io.c: 511: {
  4086                           ;uart_io.c: 512: if(dummy_byte==1)
  4087  0550  087D               	movf	(_dummy_byte),w
  4088  0551  3A01               	xorlw	01h
  4089  0552  1D03               	skipz
  4090  0553  2D55               	goto	u3121
  4091  0554  2D56               	goto	u3120
  4092  0555                     u3121:
  4093  0555  2D5C               	goto	l3132
  4094  0556                     u3120:
  4095                           	line	514
  4096                           	
  4097  0556                     l3130:	
  4098                           ;uart_io.c: 513: {
  4099                           ;uart_io.c: 514: result|=i;
  4100  0556  0875               	movf	(uart_read@i),w
  4101  0557  00F0               	movwf	(??_uart_read+0)+0
  4102  0558  0870               	movf	(??_uart_read+0)+0,w
  4103  0559  04F4               	iorwf	(uart_read@result),f
  4104                           	line	515
  4105                           ;uart_io.c: 515: }
  4106  055A  2D5C               	goto	l3132
  4107                           	line	516
  4108                           	
  4109  055B                     l1185:	
  4110  055B  2D5C               	goto	l3132
  4111                           	line	519
  4112                           	
  4113  055C                     l1186:	
  4114                           	line	520
  4115                           	
  4116  055C                     l3132:	
  4117                           ;uart_io.c: 519: }
  4118                           ;uart_io.c: 520: _delay((20000000/4)/9600-20);
  4119                           	opt asmopt_off
  4120  055C  30A6               movlw	166
  4121  055D  00F0               movwf	(??_uart_read+0)+0,f
  4122  055E                     u4107:
  4123  055E  0BF0               decfsz	(??_uart_read+0)+0,f
  4124  055F  2D5E               	goto	u4107
  4125  0560  0064               	clrwdt
  4126                           opt asmopt_on
  4127                           
  4128                           	line	510
  4129                           	
  4130  0561                     l3134:	
  4131  0561  0875               	movf	(uart_read@i),w
  4132  0562  00F0               	movwf	(??_uart_read+0)+0
  4133  0563  0770               	addwf	(??_uart_read+0)+0,w
  4134  0564  00F1               	movwf	(??_uart_read+1)+0
  4135  0565  0871               	movf	(??_uart_read+1)+0,w
  4136  0566  00F5               	movwf	(uart_read@i)
  4137  0567  08F5               	movf	(uart_read@i),f
  4138  0568  1D03               	skipz
  4139  0569  2D6B               	goto	u3131
  4140  056A  2D6C               	goto	u3130
  4141  056B                     u3131:
  4142  056B  2D50               	goto	l3128
  4143  056C                     u3130:
  4144  056C  2D6D               	goto	l3136
  4145                           	
  4146  056D                     l1184:	
  4147                           	line	522
  4148                           	
  4149  056D                     l3136:	
  4150                           ;uart_io.c: 521: }
  4151                           ;uart_io.c: 522: _delay((20000000/4)/9600/2);
  4152                           	opt asmopt_off
  4153  056D  3056               movlw	86
  4154  056E  00F0               movwf	(??_uart_read+0)+0,f
  4155  056F                     u4117:
  4156  056F  0BF0               decfsz	(??_uart_read+0)+0,f
  4157  0570  2D6F               	goto	u4117
  4158  0571  0064               	clrwdt
  4159                           opt asmopt_on
  4160                           
  4161                           	line	523
  4162                           ;uart_io.c: 523: break;
  4163  0572  2DCD               	goto	l3162
  4164                           	line	524
  4165                           ;uart_io.c: 524: case 8:
  4166                           	
  4167  0573                     l1187:	
  4168                           	line	525
  4169                           ;uart_io.c: 525: while(dummy_byte);
  4170  0573  2D75               	goto	l3138
  4171                           	
  4172  0574                     l1189:	
  4173  0574  2D75               	goto	l3138
  4174                           	
  4175  0575                     l1188:	
  4176                           	
  4177  0575                     l3138:	
  4178  0575  08FD               	movf	(_dummy_byte),f
  4179  0576  1D03               	skipz
  4180  0577  2D79               	goto	u3141
  4181  0578  2D7A               	goto	u3140
  4182  0579                     u3141:
  4183  0579  2D75               	goto	l3138
  4184  057A                     u3140:
  4185  057A  2D7B               	goto	l3140
  4186                           	
  4187  057B                     l1190:	
  4188                           	line	526
  4189                           	
  4190  057B                     l3140:	
  4191                           ;uart_io.c: 526: _delay((20000000/4)/9600-10);
  4192                           	opt asmopt_off
  4193  057B  30A9               movlw	169
  4194  057C  00F0               movwf	(??_uart_read+0)+0,f
  4195  057D                     u4127:
  4196  057D  0BF0               decfsz	(??_uart_read+0)+0,f
  4197  057E  2D7D               	goto	u4127
  4198  057F  2D80               	nop2	;nop
  4199                           opt asmopt_on
  4200                           
  4201                           	line	527
  4202                           ;uart_io.c: 527: _delay((20000000/4)/9600/2);
  4203                           	opt asmopt_off
  4204  0580  3056               movlw	86
  4205  0581  00F0               movwf	(??_uart_read+0)+0,f
  4206  0582                     u4137:
  4207  0582  0BF0               decfsz	(??_uart_read+0)+0,f
  4208  0583  2D82               	goto	u4137
  4209  0584  0064               	clrwdt
  4210                           opt asmopt_on
  4211                           
  4212                           	line	528
  4213                           	
  4214  0585                     l3142:	
  4215                           ;uart_io.c: 528: for(i=1;i>0;i=i<<1)
  4216  0585  01F5               	clrf	(uart_read@i)
  4217  0586  1403               	bsf	status,0
  4218  0587  0DF5               	rlf	(uart_read@i),f
  4219                           	
  4220  0588                     l3144:	
  4221  0588  08F5               	movf	(uart_read@i),f
  4222  0589  1D03               	skipz
  4223  058A  2D8C               	goto	u3151
  4224  058B  2D8D               	goto	u3150
  4225  058C                     u3151:
  4226  058C  2D8F               	goto	l3148
  4227  058D                     u3150:
  4228  058D  2DAC               	goto	l3156
  4229                           	
  4230  058E                     l3146:	
  4231  058E  2DAC               	goto	l3156
  4232                           	line	529
  4233                           	
  4234  058F                     l1191:	
  4235                           	line	530
  4236                           	
  4237  058F                     l3148:	
  4238                           ;uart_io.c: 529: {
  4239                           ;uart_io.c: 530: if(dummy_byte==1)
  4240  058F  087D               	movf	(_dummy_byte),w
  4241  0590  3A01               	xorlw	01h
  4242  0591  1D03               	skipz
  4243  0592  2D94               	goto	u3161
  4244  0593  2D95               	goto	u3160
  4245  0594                     u3161:
  4246  0594  2D9B               	goto	l3152
  4247  0595                     u3160:
  4248                           	line	532
  4249                           	
  4250  0595                     l3150:	
  4251                           ;uart_io.c: 531: {
  4252                           ;uart_io.c: 532: result|=i;
  4253  0595  0875               	movf	(uart_read@i),w
  4254  0596  00F0               	movwf	(??_uart_read+0)+0
  4255  0597  0870               	movf	(??_uart_read+0)+0,w
  4256  0598  04F4               	iorwf	(uart_read@result),f
  4257                           	line	533
  4258                           ;uart_io.c: 533: }
  4259  0599  2D9B               	goto	l3152
  4260                           	line	534
  4261                           	
  4262  059A                     l1193:	
  4263  059A  2D9B               	goto	l3152
  4264                           	line	537
  4265                           	
  4266  059B                     l1194:	
  4267                           	line	538
  4268                           	
  4269  059B                     l3152:	
  4270                           ;uart_io.c: 537: }
  4271                           ;uart_io.c: 538: _delay((20000000/4)/9600-20);
  4272                           	opt asmopt_off
  4273  059B  30A6               movlw	166
  4274  059C  00F0               movwf	(??_uart_read+0)+0,f
  4275  059D                     u4147:
  4276  059D  0BF0               decfsz	(??_uart_read+0)+0,f
  4277  059E  2D9D               	goto	u4147
  4278  059F  0064               	clrwdt
  4279                           opt asmopt_on
  4280                           
  4281                           	line	528
  4282                           	
  4283  05A0                     l3154:	
  4284  05A0  0875               	movf	(uart_read@i),w
  4285  05A1  00F0               	movwf	(??_uart_read+0)+0
  4286  05A2  0770               	addwf	(??_uart_read+0)+0,w
  4287  05A3  00F1               	movwf	(??_uart_read+1)+0
  4288  05A4  0871               	movf	(??_uart_read+1)+0,w
  4289  05A5  00F5               	movwf	(uart_read@i)
  4290  05A6  08F5               	movf	(uart_read@i),f
  4291  05A7  1D03               	skipz
  4292  05A8  2DAA               	goto	u3171
  4293  05A9  2DAB               	goto	u3170
  4294  05AA                     u3171:
  4295  05AA  2D8F               	goto	l3148
  4296  05AB                     u3170:
  4297  05AB  2DAC               	goto	l3156
  4298                           	
  4299  05AC                     l1192:	
  4300                           	line	540
  4301                           	
  4302  05AC                     l3156:	
  4303                           ;uart_io.c: 539: }
  4304                           ;uart_io.c: 540: _delay((20000000/4)/9600/2);
  4305                           	opt asmopt_off
  4306  05AC  3056               movlw	86
  4307  05AD  00F0               movwf	(??_uart_read+0)+0,f
  4308  05AE                     u4157:
  4309  05AE  0BF0               decfsz	(??_uart_read+0)+0,f
  4310  05AF  2DAE               	goto	u4157
  4311  05B0  0064               	clrwdt
  4312                           opt asmopt_on
  4313                           
  4314                           	line	541
  4315                           ;uart_io.c: 541: break;
  4316  05B1  2DCD               	goto	l3162
  4317                           	line	543
  4318                           	
  4319  05B2                     l3158:	
  4320                           ;uart_io.c: 543: }
  4321  05B2  2DCD               	goto	l3162
  4322                           	line	395
  4323                           	
  4324  05B3                     l1129:	
  4325                           	
  4326  05B3                     l3160:	
  4327  05B3  0873               	movf	(uart_read@channel),w
  4328                           	; Switch size 1, requested type "space"
  4329                           ; Number of cases is 8, Range of values is 1 to 8
  4330                           ; switch strategies available:
  4331                           ; Name         Bytes Cycles
  4332                           ; simple_byte    25    13 (average)
  4333                           ; direct_byte    46    22 (fixed)
  4334                           ;	Chosen strategy is simple_byte
  4335                           
  4336  05B4  3A01               	xorlw	1^0	; case 1
  4337  05B5  1903               	skipnz
  4338  05B6  2BB8               	goto	l1131
  4339  05B7  3A03               	xorlw	2^1	; case 2
  4340  05B8  1903               	skipnz
  4341  05B9  2BF7               	goto	l1140
  4342  05BA  3A01               	xorlw	3^2	; case 3
  4343  05BB  1903               	skipnz
  4344  05BC  2C35               	goto	l3036
  4345  05BD  3A07               	xorlw	4^3	; case 4
  4346  05BE  1903               	skipnz
  4347  05BF  2C79               	goto	l3058
  4348  05C0  3A01               	xorlw	5^4	; case 5
  4349  05C1  1903               	skipnz
  4350  05C2  2CB8               	goto	l3078
  4351  05C3  3A03               	xorlw	6^5	; case 6
  4352  05C4  1903               	skipnz
  4353  05C5  2CF7               	goto	l3098
  4354  05C6  3A01               	xorlw	7^6	; case 7
  4355  05C7  1903               	skipnz
  4356  05C8  2D36               	goto	l3118
  4357  05C9  3A0F               	xorlw	8^7	; case 8
  4358  05CA  1903               	skipnz
  4359  05CB  2D75               	goto	l3138
  4360  05CC  2DCD               	goto	l3162
  4361                           
  4362                           	line	543
  4363                           	
  4364  05CD                     l1138:	
  4365                           	line	544
  4366                           	
  4367  05CD                     l3162:	
  4368                           ;uart_io.c: 544: return result;
  4369  05CD  0874               	movf	(uart_read@result),w
  4370  05CE  2DCF               	goto	l1195
  4371                           	
  4372  05CF                     l3164:	
  4373                           	line	545
  4374                           	
  4375  05CF                     l1195:	
  4376  05CF  0008               	return
  4377                           	opt stack 0
  4378                           GLOBAL	__end_of_uart_read
  4379  05D0                     	__end_of_uart_read:
  4380 ;; =============== function _uart_read ends ============
  4381                           
  4382                           	signat	_uart_read,4217
  4383                           	global	_send_config
  4384                           psect	text235,local,class=CODE,delta=2
  4385                           global __ptext235
  4386  00B3                     __ptext235:
  4387                           
  4388 ;; *************** function _send_config *****************
  4389 ;; Defined at:
  4390 ;;		line 166 in file "C:\Users\Phang\Desktop\9.80\PR 27\Slave_Programmed UART_1\Slave_Programmed UART_1.c"
  4391 ;; Parameters:    Size  Location     Type
  4392 ;;  data            1    wreg     unsigned char 
  4393 ;; Auto vars:     Size  Location     Type
  4394 ;;  data            1    8[COMMON] unsigned char 
  4395 ;; Return value:  Size  Location     Type
  4396 ;;		None               void
  4397 ;; Registers used:
  4398 ;;		wreg, status,2, status,0, pclath, cstack
  4399 ;; Tracked objects:
  4400 ;;		On entry : 0/0
  4401 ;;		On exit  : 0/0
  4402 ;;		Unchanged: 0/0
  4403 ;; Data sizes:     COMMON   BANK0   BANK1   BANK3   BANK2
  4404 ;;      Params:         0       0       0       0       0
  4405 ;;      Locals:         1       0       0       0       0
  4406 ;;      Temps:          0       0       0       0       0
  4407 ;;      Totals:         1       0       0       0       0
  4408 ;;Total ram usage:        1 bytes
  4409 ;; Hardware stack levels used:    1
  4410 ;; Hardware stack levels required when called:    1
  4411 ;; This function calls:
  4412 ;;		_delay
  4413 ;; This function is called by:
  4414 ;;		_main
  4415 ;;		_lcd_clr
  4416 ;;		_lcd_goto
  4417 ;; This function uses a non-reentrant model
  4418 ;;
  4419                           psect	text235
  4420                           	file	"C:\Users\Phang\Desktop\9.80\PR 27\Slave_Programmed UART_1\Slave_Programmed UART_1
                                 .c"
  4421                           	line	166
  4422                           	global	__size_of_send_config
  4423  0025                     	__size_of_send_config	equ	__end_of_send_config-_send_config
  4424                           	
  4425  00B3                     _send_config:	
  4426                           	opt	stack 5
  4427                           ; Regs used in _send_config: [wreg+status,2+status,0+pclath+cstack]
  4428                           ;send_config@data stored from wreg
  4429  00B3  00F8               	movwf	(send_config@data)
  4430                           	line	167
  4431                           	
  4432  00B4                     l2990:	
  4433                           ;Slave_Programmed UART_1.c: 167: RC4=0;
  4434  00B4  1283               	bcf	status, 5	;RP0=0, select bank0
  4435  00B5  1303               	bcf	status, 6	;RP1=0, select bank0
  4436  00B6  1207               	bcf	(60/8),(60)&7
  4437                           	line	168
  4438                           	
  4439  00B7                     l2992:	
  4440                           ;Slave_Programmed UART_1.c: 168: PORTB=data;
  4441  00B7  0878               	movf	(send_config@data),w
  4442  00B8  0086               	movwf	(6)	;volatile
  4443                           	line	169
  4444                           	
  4445  00B9                     l2994:	
  4446                           ;Slave_Programmed UART_1.c: 169: RC5=1;
  4447  00B9  1687               	bsf	(61/8),(61)&7
  4448                           	line	170
  4449                           	
  4450  00BA                     l2996:	
  4451                           ;Slave_Programmed UART_1.c: 170: delay(50);
  4452  00BA  3000               	movlw	0
  4453  00BB  00F3               	movwf	(?_delay+3)
  4454  00BC  3000               	movlw	0
  4455  00BD  00F2               	movwf	(?_delay+2)
  4456  00BE  3000               	movlw	0
  4457  00BF  00F1               	movwf	(?_delay+1)
  4458  00C0  3032               	movlw	032h
  4459  00C1  00F0               	movwf	(?_delay)
  4460                           
  4461  00C2  120A  118A  2123   	fcall	_delay
              120A  118A         
  4462                           	line	171
  4463                           	
  4464  00C7                     l2998:	
  4465                           ;Slave_Programmed UART_1.c: 171: RC5=0;
  4466  00C7  1283               	bcf	status, 5	;RP0=0, select bank0
  4467  00C8  1303               	bcf	status, 6	;RP1=0, select bank0
  4468  00C9  1287               	bcf	(61/8),(61)&7
  4469                           	line	172
  4470                           	
  4471  00CA                     l3000:	
  4472                           ;Slave_Programmed UART_1.c: 172: delay(50);
  4473  00CA  3000               	movlw	0
  4474  00CB  00F3               	movwf	(?_delay+3)
  4475  00CC  3000               	movlw	0
  4476  00CD  00F2               	movwf	(?_delay+2)
  4477  00CE  3000               	movlw	0
  4478  00CF  00F1               	movwf	(?_delay+1)
  4479  00D0  3032               	movlw	032h
  4480  00D1  00F0               	movwf	(?_delay)
  4481                           
  4482  00D2  120A  118A  2123   	fcall	_delay
              120A  118A         
  4483                           	line	174
  4484                           	
  4485  00D7                     l553:	
  4486  00D7  0008               	return
  4487                           	opt stack 0
  4488                           GLOBAL	__end_of_send_config
  4489  00D8                     	__end_of_send_config:
  4490 ;; =============== function _send_config ends ============
  4491                           
  4492                           	signat	_send_config,4216
  4493                           	global	_delay
  4494                           psect	text236,local,class=CODE,delta=2
  4495                           global __ptext236
  4496  0123                     __ptext236:
  4497                           
  4498 ;; *************** function _delay *****************
  4499 ;; Defined at:
  4500 ;;		line 161 in file "C:\Users\Phang\Desktop\9.80\PR 27\Slave_Programmed UART_1\Slave_Programmed UART_1.c"
  4501 ;; Parameters:    Size  Location     Type
  4502 ;;  data            4    0[COMMON] unsigned long 
  4503 ;; Auto vars:     Size  Location     Type
  4504 ;;		None
  4505 ;; Return value:  Size  Location     Type
  4506 ;;		None               void
  4507 ;; Registers used:
  4508 ;;		wreg
  4509 ;; Tracked objects:
  4510 ;;		On entry : 0/0
  4511 ;;		On exit  : 0/0
  4512 ;;		Unchanged: 0/0
  4513 ;; Data sizes:     COMMON   BANK0   BANK1   BANK3   BANK2
  4514 ;;      Params:         4       0       0       0       0
  4515 ;;      Locals:         0       0       0       0       0
  4516 ;;      Temps:          4       0       0       0       0
  4517 ;;      Totals:         8       0       0       0       0
  4518 ;;Total ram usage:        8 bytes
  4519 ;; Hardware stack levels used:    1
  4520 ;; This function calls:
  4521 ;;		Nothing
  4522 ;; This function is called by:
  4523 ;;		_send_config
  4524 ;;		_send_char
  4525 ;;		_lcd_clr
  4526 ;; This function uses a non-reentrant model
  4527 ;;
  4528                           psect	text236
  4529                           	file	"C:\Users\Phang\Desktop\9.80\PR 27\Slave_Programmed UART_1\Slave_Programmed UART_1
                                 .c"
  4530                           	line	161
  4531                           	global	__size_of_delay
  4532  0030                     	__size_of_delay	equ	__end_of_delay-_delay
  4533                           	
  4534  0123                     _delay:	
  4535                           	opt	stack 6
  4536                           ; Regs used in _delay: [wreg]
  4537                           	line	162
  4538                           	
  4539  0123                     l2984:	
  4540                           ;Slave_Programmed UART_1.c: 162: for( ;data>0;data-=1);
  4541  0123  0873               	movf	(delay@data+3),w
  4542  0124  0472               	iorwf	(delay@data+2),w
  4543  0125  0471               	iorwf	(delay@data+1),w
  4544  0126  0470               	iorwf	(delay@data),w
  4545  0127  1D03               	skipz
  4546  0128  292A               	goto	u2831
  4547  0129  292B               	goto	u2830
  4548  012A                     u2831:
  4549  012A  292D               	goto	l2988
  4550  012B                     u2830:
  4551  012B  2952               	goto	l550
  4552                           	
  4553  012C                     l2986:	
  4554  012C  2952               	goto	l550
  4555                           	
  4556  012D                     l548:	
  4557                           	
  4558  012D                     l2988:	
  4559  012D  3001               	movlw	01h
  4560  012E  00F4               	movwf	((??_delay+0)+0)
  4561  012F  3000               	movlw	0
  4562  0130  00F5               	movwf	((??_delay+0)+0+1)
  4563  0131  3000               	movlw	0
  4564  0132  00F6               	movwf	((??_delay+0)+0+2)
  4565  0133  3000               	movlw	0
  4566  0134  00F7               	movwf	((??_delay+0)+0+3)
  4567  0135  0874               	movf	0+(??_delay+0)+0,w
  4568  0136  02F0               	subwf	(delay@data),f
  4569  0137  0875               	movf	1+(??_delay+0)+0,w
  4570  0138  1C03               	skipc
  4571  0139  0F75               	incfsz	1+(??_delay+0)+0,w
  4572  013A  293C               	goto	u2845
  4573  013B  293D               	goto	u2846
  4574  013C                     u2845:
  4575  013C  02F1               	subwf	(delay@data+1),f
  4576  013D                     u2846:
  4577  013D  0876               	movf	2+(??_delay+0)+0,w
  4578  013E  1C03               	skipc
  4579  013F  0F76               	incfsz	2+(??_delay+0)+0,w
  4580  0140  2942               	goto	u2847
  4581  0141  2943               	goto	u2848
  4582  0142                     u2847:
  4583  0142  02F2               	subwf	(delay@data+2),f
  4584  0143                     u2848:
  4585  0143  0877               	movf	3+(??_delay+0)+0,w
  4586  0144  1C03               	skipc
  4587  0145  0F77               	incfsz	3+(??_delay+0)+0,w
  4588  0146  2948               	goto	u2849
  4589  0147  2949               	goto	u2840
  4590  0148                     u2849:
  4591  0148  02F3               	subwf	(delay@data+3),f
  4592  0149                     u2840:
  4593                           
  4594  0149  0873               	movf	(delay@data+3),w
  4595  014A  0472               	iorwf	(delay@data+2),w
  4596  014B  0471               	iorwf	(delay@data+1),w
  4597  014C  0470               	iorwf	(delay@data),w
  4598  014D  1D03               	skipz
  4599  014E  2950               	goto	u2851
  4600  014F  2951               	goto	u2850
  4601  0150                     u2851:
  4602  0150  292D               	goto	l2988
  4603  0151                     u2850:
  4604  0151  2952               	goto	l550
  4605                           	
  4606  0152                     l549:	
  4607                           	line	163
  4608                           	
  4609  0152                     l550:	
  4610  0152  0008               	return
  4611                           	opt stack 0
  4612                           GLOBAL	__end_of_delay
  4613  0153                     	__end_of_delay:
  4614 ;; =============== function _delay ends ============
  4615                           
  4616                           	signat	_delay,4216
  4617                           	global	_uart_init
  4618                           psect	text237,local,class=CODE,delta=2
  4619                           global __ptext237
  4620  0153                     __ptext237:
  4621                           
  4622 ;; *************** function _uart_init *****************
  4623 ;; Defined at:
  4624 ;;		line 156 in file "C:\Users\Phang\Desktop\9.80\PR 27\Slave_Programmed UART_1\uart_io.c"
  4625 ;; Parameters:    Size  Location     Type
  4626 ;;  channel         1    wreg     unsigned char 
  4627 ;; Auto vars:     Size  Location     Type
  4628 ;;  channel         1    0[COMMON] unsigned char 
  4629 ;; Return value:  Size  Location     Type
  4630 ;;		None               void
  4631 ;; Registers used:
  4632 ;;		wreg, fsr0l, fsr0h, status,2, status,0
  4633 ;; Tracked objects:
  4634 ;;		On entry : 0/0
  4635 ;;		On exit  : 0/0
  4636 ;;		Unchanged: 0/0
  4637 ;; Data sizes:     COMMON   BANK0   BANK1   BANK3   BANK2
  4638 ;;      Params:         0       0       0       0       0
  4639 ;;      Locals:         1       0       0       0       0
  4640 ;;      Temps:          0       0       0       0       0
  4641 ;;      Totals:         1       0       0       0       0
  4642 ;;Total ram usage:        1 bytes
  4643 ;; Hardware stack levels used:    1
  4644 ;; This function calls:
  4645 ;;		Nothing
  4646 ;; This function is called by:
  4647 ;;		_main
  4648 ;; This function uses a non-reentrant model
  4649 ;;
  4650                           psect	text237
  4651                           	file	"C:\Users\Phang\Desktop\9.80\PR 27\Slave_Programmed UART_1\uart_io.c"
  4652                           	line	156
  4653                           	global	__size_of_uart_init
  4654  0092                     	__size_of_uart_init	equ	__end_of_uart_init-_uart_init
  4655                           	
  4656  0153                     _uart_init:	
  4657                           	opt	stack 7
  4658                           ; Regs used in _uart_init: [wreg-fsr0h+status,2+status,0]
  4659                           ;uart_init@channel stored from wreg
  4660  0153  00F0               	movwf	(uart_init@channel)
  4661                           	line	157
  4662                           	
  4663  0154                     l2930:	
  4664                           ;uart_io.c: 157: switch(channel)
  4665  0154  29CA               	goto	l2982
  4666                           	line	159
  4667                           ;uart_io.c: 158: {
  4668                           ;uart_io.c: 159: case 1:
  4669                           	
  4670  0155                     l1072:	
  4671                           	line	160
  4672                           ;uart_io.c: 160: RC2=1;
  4673  0155  1283               	bcf	status, 5	;RP0=0, select bank0
  4674  0156  1303               	bcf	status, 6	;RP1=0, select bank0
  4675  0157  1507               	bsf	(58/8),(58)&7
  4676                           	line	161
  4677                           ;uart_io.c: 161: TRISC2=0;
  4678  0158  1683               	bsf	status, 5	;RP0=1, select bank1
  4679  0159  1303               	bcf	status, 6	;RP1=0, select bank1
  4680  015A  1107               	bcf	(1082/8)^080h,(1082)&7
  4681                           	line	162
  4682                           ;uart_io.c: 162: RC3=1;
  4683  015B  1283               	bcf	status, 5	;RP0=0, select bank0
  4684  015C  1303               	bcf	status, 6	;RP1=0, select bank0
  4685  015D  1587               	bsf	(59/8),(59)&7
  4686                           	line	163
  4687                           ;uart_io.c: 163: TRISC3=1;
  4688  015E  1683               	bsf	status, 5	;RP0=1, select bank1
  4689  015F  1303               	bcf	status, 6	;RP1=0, select bank1
  4690  0160  1587               	bsf	(1083/8)^080h,(1083)&7
  4691                           	line	164
  4692                           ;uart_io.c: 164: break;
  4693  0161  29E4               	goto	l1081
  4694                           	line	165
  4695                           ;uart_io.c: 165: case 2:
  4696                           	
  4697  0162                     l1074:	
  4698                           	line	166
  4699                           ;uart_io.c: 166: RC0=1;
  4700  0162  1283               	bcf	status, 5	;RP0=0, select bank0
  4701  0163  1303               	bcf	status, 6	;RP1=0, select bank0
  4702  0164  1407               	bsf	(56/8),(56)&7
  4703                           	line	167
  4704                           ;uart_io.c: 167: TRISC0=0;
  4705  0165  1683               	bsf	status, 5	;RP0=1, select bank1
  4706  0166  1303               	bcf	status, 6	;RP1=0, select bank1
  4707  0167  1007               	bcf	(1080/8)^080h,(1080)&7
  4708                           	line	168
  4709                           ;uart_io.c: 168: RC1=1;
  4710  0168  1283               	bcf	status, 5	;RP0=0, select bank0
  4711  0169  1303               	bcf	status, 6	;RP1=0, select bank0
  4712  016A  1487               	bsf	(57/8),(57)&7
  4713                           	line	169
  4714                           ;uart_io.c: 169: TRISC1=1;
  4715  016B  1683               	bsf	status, 5	;RP0=1, select bank1
  4716  016C  1303               	bcf	status, 6	;RP1=0, select bank1
  4717  016D  1487               	bsf	(1081/8)^080h,(1081)&7
  4718                           	line	170
  4719                           ;uart_io.c: 170: break;
  4720  016E  29E4               	goto	l1081
  4721                           	line	171
  4722                           ;uart_io.c: 171: case 3:
  4723                           	
  4724  016F                     l1075:	
  4725                           	line	172
  4726                           	
  4727  016F                     l2932:	
  4728                           ;uart_io.c: 172: dummy_byte=1;
  4729  016F  01FD               	clrf	(_dummy_byte)
  4730  0170  1403               	bsf	status,0
  4731  0171  0DFD               	rlf	(_dummy_byte),f
  4732                           	line	173
  4733                           	
  4734  0172                     l2934:	
  4735                           ;uart_io.c: 173: dummy_byte=0;
  4736  0172  1003               	clrc
  4737  0173  3000               	movlw	0
  4738  0174  1803               	btfsc	status,0
  4739  0175  3001               	movlw	1
  4740  0176  00FD               	movwf	(_dummy_byte)
  4741                           	line	174
  4742                           	
  4743  0177                     l2936:	
  4744                           ;uart_io.c: 174: dummy_byte=1;
  4745  0177  01FD               	clrf	(_dummy_byte)
  4746  0178  1403               	bsf	status,0
  4747  0179  0DFD               	rlf	(_dummy_byte),f
  4748                           	line	175
  4749                           	
  4750  017A                     l2938:	
  4751                           ;uart_io.c: 175: dummy_byte=1;
  4752  017A  01FD               	clrf	(_dummy_byte)
  4753  017B  1403               	bsf	status,0
  4754  017C  0DFD               	rlf	(_dummy_byte),f
  4755                           	line	176
  4756                           ;uart_io.c: 176: break;
  4757  017D  29E4               	goto	l1081
  4758                           	line	177
  4759                           ;uart_io.c: 177: case 4:
  4760                           	
  4761  017E                     l1076:	
  4762                           	line	178
  4763                           	
  4764  017E                     l2940:	
  4765                           ;uart_io.c: 178: dummy_byte=1;
  4766  017E  01FD               	clrf	(_dummy_byte)
  4767  017F  1403               	bsf	status,0
  4768  0180  0DFD               	rlf	(_dummy_byte),f
  4769                           	line	179
  4770                           	
  4771  0181                     l2942:	
  4772                           ;uart_io.c: 179: dummy_byte=0;
  4773  0181  1003               	clrc
  4774  0182  3000               	movlw	0
  4775  0183  1803               	btfsc	status,0
  4776  0184  3001               	movlw	1
  4777  0185  00FD               	movwf	(_dummy_byte)
  4778                           	line	180
  4779                           	
  4780  0186                     l2944:	
  4781                           ;uart_io.c: 180: dummy_byte=1;
  4782  0186  01FD               	clrf	(_dummy_byte)
  4783  0187  1403               	bsf	status,0
  4784  0188  0DFD               	rlf	(_dummy_byte),f
  4785                           	line	181
  4786                           	
  4787  0189                     l2946:	
  4788                           ;uart_io.c: 181: dummy_byte=1;
  4789  0189  01FD               	clrf	(_dummy_byte)
  4790  018A  1403               	bsf	status,0
  4791  018B  0DFD               	rlf	(_dummy_byte),f
  4792                           	line	182
  4793                           ;uart_io.c: 182: break;
  4794  018C  29E4               	goto	l1081
  4795                           	line	183
  4796                           ;uart_io.c: 183: case 5:
  4797                           	
  4798  018D                     l1077:	
  4799                           	line	184
  4800                           	
  4801  018D                     l2948:	
  4802                           ;uart_io.c: 184: dummy_byte=1;
  4803  018D  01FD               	clrf	(_dummy_byte)
  4804  018E  1403               	bsf	status,0
  4805  018F  0DFD               	rlf	(_dummy_byte),f
  4806                           	line	185
  4807                           	
  4808  0190                     l2950:	
  4809                           ;uart_io.c: 185: dummy_byte=0;
  4810  0190  1003               	clrc
  4811  0191  3000               	movlw	0
  4812  0192  1803               	btfsc	status,0
  4813  0193  3001               	movlw	1
  4814  0194  00FD               	movwf	(_dummy_byte)
  4815                           	line	186
  4816                           	
  4817  0195                     l2952:	
  4818                           ;uart_io.c: 186: dummy_byte=1;
  4819  0195  01FD               	clrf	(_dummy_byte)
  4820  0196  1403               	bsf	status,0
  4821  0197  0DFD               	rlf	(_dummy_byte),f
  4822                           	line	187
  4823                           	
  4824  0198                     l2954:	
  4825                           ;uart_io.c: 187: dummy_byte=1;
  4826  0198  01FD               	clrf	(_dummy_byte)
  4827  0199  1403               	bsf	status,0
  4828  019A  0DFD               	rlf	(_dummy_byte),f
  4829                           	line	188
  4830                           ;uart_io.c: 188: break;
  4831  019B  29E4               	goto	l1081
  4832                           	line	189
  4833                           ;uart_io.c: 189: case 6:
  4834                           	
  4835  019C                     l1078:	
  4836                           	line	190
  4837                           	
  4838  019C                     l2956:	
  4839                           ;uart_io.c: 190: dummy_byte=1;
  4840  019C  01FD               	clrf	(_dummy_byte)
  4841  019D  1403               	bsf	status,0
  4842  019E  0DFD               	rlf	(_dummy_byte),f
  4843                           	line	191
  4844                           	
  4845  019F                     l2958:	
  4846                           ;uart_io.c: 191: dummy_byte=0;
  4847  019F  1003               	clrc
  4848  01A0  3000               	movlw	0
  4849  01A1  1803               	btfsc	status,0
  4850  01A2  3001               	movlw	1
  4851  01A3  00FD               	movwf	(_dummy_byte)
  4852                           	line	192
  4853                           	
  4854  01A4                     l2960:	
  4855                           ;uart_io.c: 192: dummy_byte=1;
  4856  01A4  01FD               	clrf	(_dummy_byte)
  4857  01A5  1403               	bsf	status,0
  4858  01A6  0DFD               	rlf	(_dummy_byte),f
  4859                           	line	193
  4860                           	
  4861  01A7                     l2962:	
  4862                           ;uart_io.c: 193: dummy_byte=1;
  4863  01A7  01FD               	clrf	(_dummy_byte)
  4864  01A8  1403               	bsf	status,0
  4865  01A9  0DFD               	rlf	(_dummy_byte),f
  4866                           	line	194
  4867                           ;uart_io.c: 194: break;
  4868  01AA  29E4               	goto	l1081
  4869                           	line	195
  4870                           ;uart_io.c: 195: case 7:
  4871                           	
  4872  01AB                     l1079:	
  4873                           	line	196
  4874                           	
  4875  01AB                     l2964:	
  4876                           ;uart_io.c: 196: dummy_byte=1;
  4877  01AB  01FD               	clrf	(_dummy_byte)
  4878  01AC  1403               	bsf	status,0
  4879  01AD  0DFD               	rlf	(_dummy_byte),f
  4880                           	line	197
  4881                           	
  4882  01AE                     l2966:	
  4883                           ;uart_io.c: 197: dummy_byte=0;
  4884  01AE  1003               	clrc
  4885  01AF  3000               	movlw	0
  4886  01B0  1803               	btfsc	status,0
  4887  01B1  3001               	movlw	1
  4888  01B2  00FD               	movwf	(_dummy_byte)
  4889                           	line	198
  4890                           	
  4891  01B3                     l2968:	
  4892                           ;uart_io.c: 198: dummy_byte=1;
  4893  01B3  01FD               	clrf	(_dummy_byte)
  4894  01B4  1403               	bsf	status,0
  4895  01B5  0DFD               	rlf	(_dummy_byte),f
  4896                           	line	199
  4897                           	
  4898  01B6                     l2970:	
  4899                           ;uart_io.c: 199: dummy_byte=1;
  4900  01B6  01FD               	clrf	(_dummy_byte)
  4901  01B7  1403               	bsf	status,0
  4902  01B8  0DFD               	rlf	(_dummy_byte),f
  4903                           	line	200
  4904                           ;uart_io.c: 200: break;
  4905  01B9  29E4               	goto	l1081
  4906                           	line	201
  4907                           ;uart_io.c: 201: case 8:
  4908                           	
  4909  01BA                     l1080:	
  4910                           	line	202
  4911                           	
  4912  01BA                     l2972:	
  4913                           ;uart_io.c: 202: dummy_byte=1;
  4914  01BA  01FD               	clrf	(_dummy_byte)
  4915  01BB  1403               	bsf	status,0
  4916  01BC  0DFD               	rlf	(_dummy_byte),f
  4917                           	line	203
  4918                           	
  4919  01BD                     l2974:	
  4920                           ;uart_io.c: 203: dummy_byte=0;
  4921  01BD  1003               	clrc
  4922  01BE  3000               	movlw	0
  4923  01BF  1803               	btfsc	status,0
  4924  01C0  3001               	movlw	1
  4925  01C1  00FD               	movwf	(_dummy_byte)
  4926                           	line	204
  4927                           	
  4928  01C2                     l2976:	
  4929                           ;uart_io.c: 204: dummy_byte=1;
  4930  01C2  01FD               	clrf	(_dummy_byte)
  4931  01C3  1403               	bsf	status,0
  4932  01C4  0DFD               	rlf	(_dummy_byte),f
  4933                           	line	205
  4934                           	
  4935  01C5                     l2978:	
  4936                           ;uart_io.c: 205: dummy_byte=1;
  4937  01C5  01FD               	clrf	(_dummy_byte)
  4938  01C6  1403               	bsf	status,0
  4939  01C7  0DFD               	rlf	(_dummy_byte),f
  4940                           	line	206
  4941                           ;uart_io.c: 206: break;
  4942  01C8  29E4               	goto	l1081
  4943                           	line	208
  4944                           	
  4945  01C9                     l2980:	
  4946                           ;uart_io.c: 208: }
  4947  01C9  29E4               	goto	l1081
  4948                           	line	157
  4949                           	
  4950  01CA                     l1071:	
  4951                           	
  4952  01CA                     l2982:	
  4953  01CA  0870               	movf	(uart_init@channel),w
  4954                           	; Switch size 1, requested type "space"
  4955                           ; Number of cases is 8, Range of values is 1 to 8
  4956                           ; switch strategies available:
  4957                           ; Name         Bytes Cycles
  4958                           ; simple_byte    25    13 (average)
  4959                           ; direct_byte    46    22 (fixed)
  4960                           ;	Chosen strategy is simple_byte
  4961                           
  4962  01CB  3A01               	xorlw	1^0	; case 1
  4963  01CC  1903               	skipnz
  4964  01CD  2955               	goto	l1072
  4965  01CE  3A03               	xorlw	2^1	; case 2
  4966  01CF  1903               	skipnz
  4967  01D0  2962               	goto	l1074
  4968  01D1  3A01               	xorlw	3^2	; case 3
  4969  01D2  1903               	skipnz
  4970  01D3  296F               	goto	l2932
  4971  01D4  3A07               	xorlw	4^3	; case 4
  4972  01D5  1903               	skipnz
  4973  01D6  297E               	goto	l2940
  4974  01D7  3A01               	xorlw	5^4	; case 5
  4975  01D8  1903               	skipnz
  4976  01D9  298D               	goto	l2948
  4977  01DA  3A03               	xorlw	6^5	; case 6
  4978  01DB  1903               	skipnz
  4979  01DC  299C               	goto	l2956
  4980  01DD  3A01               	xorlw	7^6	; case 7
  4981  01DE  1903               	skipnz
  4982  01DF  29AB               	goto	l2964
  4983  01E0  3A0F               	xorlw	8^7	; case 8
  4984  01E1  1903               	skipnz
  4985  01E2  29BA               	goto	l2972
  4986  01E3  29E4               	goto	l1081
  4987                           
  4988                           	line	208
  4989                           	
  4990  01E4                     l1073:	
  4991                           	line	209
  4992                           	
  4993  01E4                     l1081:	
  4994  01E4  0008               	return
  4995                           	opt stack 0
  4996                           GLOBAL	__end_of_uart_init
  4997  01E5                     	__end_of_uart_init:
  4998 ;; =============== function _uart_init ends ============
  4999                           
  5000                           	signat	_uart_init,4216
  5001                           psect	text238,local,class=CODE,delta=2
  5002                           global __ptext238
  5003  0000                     __ptext238:
  5004                           	global	btemp
  5005  007E                     	btemp set 07Eh
  5006                           
  5007                           	DABS	1,126,2	;btemp
  5008                           	global	wtemp0
  5009  007E                     	wtemp0 set btemp


HI-TECH Software PICC Macro Assembler V9.80 build 6738 
Symbol Table                                                                                   Wed Jun 20 23:22:08 2012

                   _k 0020                     _m 0022                     pc 0002        uart_write@data 0070  
                  fsr 0004                   l520 03A6                   l521 0265                   l530 02C1  
                 l522 0277                   l531 02CD                   l523 027B                   l515 023A  
                 l516 0392                   l540 0338                   l532 0314                   l524 0286  
                 l541 036E                   l533 02CE                   l525 0298                   l517 0244  
                 l550 0152                   l542 0386                   l534 02DE                   l526 029C  
                 l518 0256                   l543 03A7                   l535 02EA                   l527 02A7  
                 l519 025A                   l544 03A8                   l528 0309                   l536 02EB  
                 l553 00D7                   l545 03A8                   l537 02FB                   l529 02B1  
                 l570 00A5                   l562 0110                   l538 0307                   l571 00B2  
                 l563 00FF                   l539 0315                   l548 012D                   l556 00FC  
                 l572 00B2                   l549 0152                   l565 0121                   l566 0122  
                 l559 0095                   l567 0122                   _RA0 0028                   _RA1 0029  
                 _RA2 002A                   _RA3 002B                   _RC0 0038                   _RA4 002C  
                 _RC1 0039                   _RA5 002D                   _RC2 003A                   _RC3 003B  
                 _RC4 003C                   _RC5 003D                   fsr0 0004       send_config@data 0078  
                l1100 067D                  l1101 0695                  l1110 0703                  l1102 06A8  
                l1111 071B                  l1103 06CC                  l1120 0789                  l1112 072E  
                l1104 06B8                  l1121 07A1                  l1113 0752                  l1105 06C0  
                l1130 03B7                  l1122 07B4                  l1114 073E                  l1106 06D8  
                l1131 03B8                  l1123 07D8                  l1115 0746                  l1107 06EB  
                l1140 03F7                  l1132 03B8                  l1124 07C4                  l1116 075E  
                l1108 070F                  l1141 03F7                  l1133 03BF                  l1125 07CC  
                l1117 0771                  l1109 06FB                  l1150 0442                  l1142 03FE  
                l1134 03D3                  l1118 0795                  l1126 07FF                  l1071 01CA  
                l1151 0456                  l1143 0412                  l1135 03F0                  l1119 0781  
                l1080 01BA                  l1072 0155                  l3000 00CA                  l1160 04B0  
                l1152 0471                  l1144 042F                  l1136 03DE                  l1073 01E4  
                l1081 01E4                  l1129 05B3                  l1161 049E                  l1153 045F  
                l1145 041D                  l1137 03DF                  l1074 0162                  l1138 05CD  
                l1170 04DE                  l1162 049F                  l1154 0460                  l1146 041E  
                l3010 03D2                  l3002 03AC                  l1090 07FF                  l1075 016F  
                l1171 04F5                  l1163 04B6                  l1155 0477                  l1147 0435  
                l1139 03F6                  l1091 0612                  l1076 017E                  l1180 0536  
                l3100 04FD                  l1172 04F7                  l1164 04B8                  l1156 0479  
                l1148 043C                  l3020 03FE                  l3012 03D9                  l3004 03BF  
                l1084 07E5                  l1092 0623                  l1077 018D                  l1181 0535  
                l1173 04F6                  l1165 04B7                  l1157 0478                  l1149 043B  
                l1093 0646                  l1085 05D2                  l1078 019C                  l1190 057B  
                l1182 053C                  l3110 0517                  l3102 0507                  l1174 04FD  
                l1166 04BE                  l1158 047F                  l3030 041E                  l3022 0408  
                l3014 03DF                  l3006 03C9                  l1094 0631                  l1086 05E3  
                l1079 01AB                  l1191 058F                  l1183 0550                  l1175 0511  
                l1167 04D2                  l1159 0493                  l1095 063A                  l1087 0606  
                l1192 05AC                  l1184 056D                  l3120 053C                  l1176 052E  
                l3112 051D                  l3104 050A                  l1168 04EF                  l3040 0442  
                l3032 0423                  l3024 040B                  l3016 03E4                  l3008 03CC  
                l1096 0652                  l3200 0629                  l1088 05F1                  l1193 059A  
                l1185 055B                  l1177 051C                  l1169 04DD                  l1097 0665  
                l1089 05FA                  l1194 059B                  l1186 055C                  l3130 0556  
                l3122 0546                  l3114 0522                  l1178 051D                  l3106 0510  
                l3050 045A                  l3042 044C                  l3026 0411                  l3034 042F  
                l3018 03F0                  l1098 0689                  l3210 064A                  l3202 062C  
                l1195 05CF                  l1187 0573                  l1179 0534                  l1099 0675  
                l3140 057B                  l1188 0575                  l3132 055C                  l3124 0549  
                l3116 052E                  l3108 0511                  l3060 047F                  l3052 0460  
                l3044 044F                  l3036 0435                  l3028 0418                  l3300 074C  
                l3220 066B                  l3212 0652                  l3204 0634                  l1189 0574  
                l3150 0595                  l3142 0585                  l3134 0561                  l3126 054F  
                l3118 0536                  l3070 0499                  l3062 0489                  l3054 0465  
                l3046 0455                  l3038 043C                  l3310 0763                  l3302 0752  
                l3222 0670                  l3230 0689                  l3214 0657                  l3206 063A  
                l3152 059B                  l3144 0588                  l3136 056D                  l3128 0550  
                l3080 04BE                  l3072 049F                  l3064 048C                  l3056 0471  
                l3048 0456                  l3160 05B3                  l3320 0781                  l3312 0770  
                l3304 0756                  l3240 06A7                  l3232 068D                  l3224 0675  
                l3216 0664                  l3208 0646                  l3400 01F0                  l3154 05A0  
                l3146 058E                  l3138 0575                  l3090 04D8                  l3082 04C8  
                l3074 04A4                  l3066 0492                  l3058 0479                  l3162 05CD  
                l3330 079C                  l3322 0784                  l3314 0771                  l3306 0759  
                l3250 06BB                  l3242 06A8                  l3234 0690                  l3226 0678  
                l3218 0665                  l3170 05D9                  l3410 020A                  l3402 01F2  
                l3164 05CF                  l3156 05AC                  l3148 058F                  l3092 04DE  
                l3084 04CB                  l3076 04B0                  l3068 0493                  l3340 07BA  
                l3332 07A1                  l3324 078F                  l3316 0777                  l3308 075E  
                l3260 06D8                  l3252 06C6                  l3244 06AE                  l3236 0695  
                l3228 0683                  l3180 05EC                  l3172 05DC                  l3500 0386  
                l3420 0216                  l3412 0210                  l3404 01F8                  l3158 05B2  
                l3094 04E3                  l3086 04D1                  l3078 04B8                  l3342 07BF  
                l3350 07D8                  l3334 07A6                  l3318 077C                  l3326 0795  
                l3270 06F6                  l3262 06DD                  l3246 06B3                  l3254 06CC  
                l3238 069A                  l3190 0615                  l3182 05F4                  l3174 05E2  
                l3166 05D1                  l3502 0391                  l3430 0233                  l3422 021B  
                l3414 0213                  l3406 01FE                  l3096 04EF                  l3088 04D2  
                l3352 07DC                  l3344 07C4                  l3336 07B3                  l3328 0799  
                l3280 0713                  l3272 06FB                  l3264 06EA                  l3256 06D0  
                l3248 06B8                  l3192 0619                  l3184 05FA                  l3176 05E3  
                l3168 05D5                  l3360 00D9                  l3440 025A                  l3504 0392  
                l3432 023A                  l3424 0221                  l3416 0214                  l3408 0204  
                l3098 04F7                  l3354 07DF                  l3346 07C7                  l3338 07B4  
                l3290 072E                  l3282 0716                  l3274 06FE                  l3266 06EB  
                l3258 06D3                  l3194 061C                  l3178 05E9                  l3186 0606  
                l3370 00EF                  l3362 00DC                  l3450 0286                  l3442 0265  
                l3434 0244                  l3426 0227                  l3418 0215                  l3356 07E4  
                l3348 07D2                  l3292 0734                  l3284 071B                  l3276 0709  
                l3268 06F1                  l3196 0622                  l3188 060A                  l3364 00DE  
                l3372 0082                  l3380 00AA                  l3460 02B7                  l3452 028F  
                l3444 026E                  l3436 024D                  l3428 022D                  l3294 0739  
                l3286 0720                  l3278 070F                  l3198 0623                  l3358 07E5  
                l3366 00DF                  l3374 0097                  l3390 0114                  l3382 00FE  
                l3470 02FB                  l3462 02C1                  l3454 0294                  l3446 0273  
                l3438 0252                  l3296 073E                  l3288 072D                  l3368 00EC  
                l3376 009D                  l3384 00FF                  l3480 0323                  l3472 0308  
                l3464 02D4                  l3456 029C                  l3448 027B                  l3392 01E5  
                l2930 0154                  l3298 0741                  l3378 00A5                  l3386 010B  
                l3490 0350                  l3482 0329                  l3466 02DE                  l3474 0309  
                l3458 02A7                  l3394 01EA                  l2940 017E                  l2932 016F  
                l3388 0110                  l3492 035F                  l3484 032D                  l3476 0315  
                l3468 02F1                  l3396 01ED                  l2950 0190                  l2942 0181  
                l2934 0172                  l3494 0367                  l3486 0338                  l3478 031E  
                l3398 01EE                  l2960 01A4                  l2952 0195                  l2944 0186  
                l2936 0177                  l3496 036E                  l3488 0341                  l2970 01B6  
                l2962 01A7                  l2954 0198                  l2946 0189                  l2938 017A  
                l3498 037D                  l2980 01C9                  l2972 01BA                  l2964 01AB  
                l2956 019C                  l2948 018D                  l2974 01BD                  l2966 01AE  
                l2958 019F                  l2982 01CA                  l2990 00B4                  l2976 01C2  
                l2968 01B3                  l2984 0123                  l2992 00B7                  l2978 01C5  
                l2986 012C                  l2994 00B9                  l2988 012D                  l2996 00BA  
                l2998 00C7                  STR_1 0016                  STR_2 0009                  u3000 0499  
                u3001 0498                  u3010 04AF                  u3011 04AE                  u3100 053B  
                u3020 04BD                  u3101 053A                  u3021 04BC                  u3110 054E  
                u3030 04D0                  u3111 054D                  u3031 04CF                  u3120 0556  
                u3040 04D8                  u3200 0605                  u3121 0555                  u3041 04D7  
                u3201 0604                  u3130 056C                  u3050 04EE                  u3210 0621  
                u3131 056B                  u3051 04ED                  u3211 0620                  u3140 057A  
                u3060 04FC                  u3300 06E9                  u3220 0629                  u3141 0579  
                u3061 04FB                  u3301 06E8                  u3221 0628                  u3150 058D  
                u3070 050F                  u3310 06F1                  u3230 0645                  u3151 058C  
                u3071 050E                  u4007 04C0                  u3311 06F0                  u3231 0644  
                u3160 0595                  u3080 0517                  u3400 07BA                  u3320 070E  
                u3240 0663                  u3161 0594                  u3081 0516                  u4017 04C5  
                u3401 07B9                  u3321 070D                  u3241 0662                  u3170 05AB  
                u3090 052D                  u3410 07D7                  u3330 072C                  u3250 066B  
                u3171 05AA                  u4107 055E                  u3091 052C                  u4027 04E0  
                u3411 07D6                  u3331 072B                  u3251 066A                  u3340 0734  
                u3260 0688                  u3180 05E1                  u3420 009D                  u3500 02F1  
                u4117 056F                  u4037 04F1                  u3341 0733                  u3261 0687  
                u3181 05E0                  u3421 009C                  u3501 02F0                  u3350 0751  
                u3270 06A6                  u3190 05E9                  u3430 0114                  u3510 0350  
                u4127 057D                  u4047 04FF                  u3351 0750                  u3271 06A5  
                u3191 05E8                  u3511 034F                  u3360 076F                  u3280 06AE  
                u3440 0120                  u4137 0582                  u4057 0504                  u3361 076E  
                u3281 06AD                  u3441 011F                  u3370 0777                  u3290 06CB  
                u3450 0252                  u4147 059D                  u4067 051F                  u3371 0776  
                u3291 06CA                  u3515 034C                  u3451 0251                  u2900 03FD  
                u3380 0794                  u3460 0273                  u4157 05AE                  u4077 0530  
                u2901 03FC                  u3381 0793                  u3461 0272                  u2830 012B  
                u2910 0410                  u3390 07B2                  u3470 0294                  u2831 012A  
                u4087 053E                  u2911 040F                  u3391 07B1                  u3607 0659  
                u3527 05D7                  u3471 0293                  u2840 0149                  u2920 0418  
                u3480 02B7                  u4097 0543                  u2921 0417                  u3617 0672  
                u3537 05EE                  u3481 02B6                  u2850 0151                  u2930 042E  
                u3490 02D4                  u2851 0150                  u2931 042D                  u3707 0700  
                u3627 067A                  u3547 05F6                  u3491 02D3                  u2940 0441  
                u2860 03BE                  u2845 013C                  u2941 0440                  u2861 03BD  
                u3717 0718                  u3637 0692                  u3557 060F                  u2846 013D  
                u2950 0454                  u2870 03D1                  u2847 0142                  u2951 0453  
                u2871 03D0                  u3807 07A8                  u3727 0722                  u3647 069C  
                u3567 0617                  u2848 0143                  u2960 045A                  u2880 03D9  
                u2849 0148                  u2881 03D8                  u3817 07C1                  u3737 073B  
                u3657 06B5                  u3577 062E                  u2970 0470                  u2890 03EF  
                u2971 046F                  u3907 0420                  u2891 03EE                  u3827 07C9  
                u3747 0743                  u3667 06BD                  u3587 0636                  u2980 047E  
                u2981 047D                  u3917 0431                  u3837 07E1                  u3757 075B  
                u3677 06D5                  u3597 064F                  u2990 0491                  u2991 0490  
                u3927 0444                  u3847 03C1                  u3767 0765                  u3687 06DF  
                u3937 0449                  u3857 03C6                  u3777 077E                  u3697 06F8  
                u3947 0462                  u3867 03E1                  u3787 0786                  u3957 0473  
                u3877 03F2                  u3797 079E                  u3967 0481                  u3887 0400  
                u3977 0486                  u3897 0405                  u3987 04A1                  u3997 04B2  
                _main 01E5                  btemp 007E          lcd_goto@data 007A                  start 0000  
   uart_write@channel 0073                 ?_main 0070                 _PORTB 0006                 _TRISA 0085  
               _TRISB 0086                 _TRISC 0087       __end_of_lcd_clr 0096                 _delay 0123  
               pclath 000A                 status 0003                 wtemp0 007E          __end_of_main 03AB  
              ??_main 007B      main@data_to_read 007C                ?_delay 0070          ?_send_config 0070  
              _ADCON1 009F          ?_send_string 0070                _TRISC0 0438                _TRISC1 0439  
              _TRISC2 043A                _TRISC3 043B      __end_of_lcd_goto 00B3             ??_lcd_clr 0079  
      __pcstackCOMMON 0070         __end_of_delay 0153               ??_delay 0074            __pbssBANK0 0020  
          __pmaintext 01E5    __size_of_send_char 0025    __size_of_uart_init 0092    __size_of_uart_read 0225  
           ?_lcd_goto 0070  __size_of_send_config 0025  __size_of_send_string 0026            _dummy_byte 007D  
             _lcd_clr 0082            ??_lcd_goto 0079  end_of_initialization 007E     __end_of_send_char 00FD  
    uart_init@channel 0070     __end_of_uart_init 01E5     __end_of_uart_read 05D0      uart_read@channel 0073  
       send_char@data 0078            _uart_write 05D0           uart_write@i 0074   start_initialization 0079  
         ?_uart_write 0070           __pbssCOMMON 007D     __size_of_lcd_goto 001D             __ptext230 0096  
           __ptext231 0082             __ptext232 00D8             __ptext233 05D0             __ptext234 03AB  
           __ptext235 00B3             __ptext236 0123             __ptext228 0000             __ptext237 0153  
           __ptext229 00FD             __ptext238 0000             __pstrings 0003              ?_lcd_clr 0070  
       ??_send_config 0078        __size_of_delay 0030             delay@data 0070         ??_send_string 0079  
 __size_of_uart_write 0230             _send_char 00D8             _uart_init 0153             _uart_read 03AB  
          uart_read@i 0075       uart_read@result 0074           __stringbase 0008   __end_of_send_config 00D8  
          ?_send_char 0070          send_string@s 007A   __end_of_send_string 0123            ?_uart_init 0070  
          ?_uart_read 0070      __size_of_lcd_clr 0014              _lcd_goto 0096         __size_of_main 01C6  
        ??_uart_write 0071           _send_config 00B3   uart_read@dummy_mask 0072           _send_string 00FD  
         ??_send_char 0078    __end_of_uart_write 0800             stringcode 0003           ??_uart_init 0070  
         ??_uart_read 0070              stringdir 0003              stringtab 0003  
